(lp1
(lp2
(lp3
(I216
I452
tp4
a(I588
I668
tp5
a(I548
I780
tp6
a(I668
I772
tp7
a(I376
I952
tp8
a(I436
I724
tp9
a(I744
I928
tp10
a(I684
I892
tp11
a(I632
I688
tp12
a(I344
I404
tp13
a(I360
I948
tp14
a(I372
I696
tp15
a(I56
I984
tp16
a(I244
I648
tp17
a(I244
I544
tp18
a(I400
I656
tp19
a(I936
I988
tp20
a(I148
I976
tp21
a(I428
I552
tp22
a(I252
I316
tp23
a(I44
I176
tp24
a(I44
I700
tp25
a(I116
I160
tp26
a(I116
I720
tp27
a(I812
I992
tp28
a(I348
I904
tp29
a(I672
I788
tp30
a(I672
I956
tp31
a(I760
I896
tp32
a(I64
I120
tp33
a(I64
I776
tp34
a(I452
I472
tp35
a(I532
I568
tp36
a(I944
I988
tp37
a(I736
I940
tp38
a(I364
I892
tp39
a(I388
I468
tp40
a(I480
I852
tp41
a(I480
I696
tp42
a(I92
I652
tp43
a(I92
I864
tp44
a(I92
I348
tp45
a(I80
I640
tp46
a(I80
I720
tp47
a(I380
I784
tp48
a(I380
I660
tp49
a(I128
I552
tp50
a(I128
I628
tp51
a(I12
I96
tp52
a(I12
I452
tp53
a(I544
I860
tp54
a(I544
I740
tp55
a(I16
I908
tp56
a(I16
I424
tp57
a(I732
I828
tp58
a(I240
I856
tp59
a(I608
I652
tp60
a(I304
I992
tp61
a(I304
I960
tp62
a(I304
I964
tp63
a(I620
I888
tp64
a(I620
I804
tp65
a(I432
I684
tp66
a(I432
I888
tp67
a(I4
I660
tp68
a(I4
I792
tp69
a(I132
I392
tp70
a(I224
I524
tp71
a(I96
I968
tp72
a(I408
I484
tp73
a(I408
I756
tp74
a(I408
I692
tp75
a(I676
I832
tp76
a(I352
I668
tp77
a(I528
I860
tp78
a(I468
I664
tp79
a(I460
I732
tp80
a(I320
I476
tp81
a(I320
I940
tp82
a(I192
I208
tp83
a(I264
I608
tp84
a(I484
I512
tp85
a(I256
I696
tp86
a(I256
I368
tp87
a(I84
I568
tp88
a(I84
I752
tp89
a(I84
I224
tp90
a(I368
I972
tp91
a(I368
I924
tp92
a(I536
I760
tp93
a(I340
I448
tp94
a(I384
I904
tp95
a(I112
I524
tp96
a(I104
I536
tp97
a(I104
I172
tp98
a(I104
I532
tp99
a(I248
I764
tp100
a(I248
I520
tp101
a(I248
I836
tp102
a(I488
I716
tp103
a(I488
I828
tp104
a(I560
I764
tp105
a(I728
I852
tp106
a(I40
I912
tp107
a(I40
I556
tp108
a(I40
I664
tp109
a(I356
I816
tp110
a(I356
I856
tp111
a(I616
I744
tp112
a(I780
I832
tp113
a(I8
I780
tp114
a(I8
I460
tp115
a(I272
I784
tp116
a(I272
I996
tp117
a(I392
I884
tp118
a(I108
I996
tp119
a(I108
I500
tp120
a(I48
I352
tp121
a(I48
I56
tp122
a(I48
I644
tp123
a(I820
I884
tp124
a(I604
I900
tp125
a(I604
I708
tp126
a(I140
I712
tp127
a(I140
I228
tp128
a(I140
I652
tp129
a(I68
I876
tp130
a(I740
I872
tp131
a(I236
I844
tp132
a(I236
I604
tp133
a(I464
I952
tp134
a(I404
I456
tp135
a(I752
I900
tp136
a(I752
I872
tp137
a(I328
I728
tp138
a(I328
I424
tp139
a(I220
I612
tp140
a(I220
I316
tp141
a(I76
I380
tp142
a(I76
I840
tp143
a(I76
I660
tp144
a(I308
I480
tp145
a(I308
I824
tp146
a(I228
I936
tp147
a(I196
I760
tp148
a(I232
I868
tp149
a(I232
I324
tp150
a(I268
I792
tp151
a(I656
I772
tp152
a(I180
I268
tp153
a(I208
I816
tp154
a(I208
I416
tp155
a(I492
I528
tp156
a(I492
I632
tp157
a(I492
I568
tp158
a(I276
I360
tp159
a(I276
I956
tp160
a(I276
I308
tp161
a(I136
I864
tp162
a(I636
I848
tp163
a(I636
I940
tp164
a(I636
I920
tp165
a(I844
I884
tp166
a(I72
I372
tp167
a(I72
I788
tp168
a(I808
I968
tp169
a(I808
I836
tp170
a(I36
I412
tp171
a(I36
I396
tp172
a(I36
I340
tp173
a(I260
I756
tp174
a(I260
I360
tp175
a(I648
I876
tp176
a(I164
I400
tp177
a(I164
I252
tp178
a(I152
I312
tp179
a(I152
I244
tp180
a(I152
I892
tp181
a(I284
I700
tp182
a(I284
I836
tp183
a(I212
I444
tp184
a(I772
I932
tp185
a(I0
I984
tp186
a(I0
I564
tp187
a(I724
I768
tp188
a(I724
I868
tp189
a(I336
I496
tp190
a(I336
I644
tp191
a(I312
I920
tp192
a(I312
I464
tp193
a(I144
I732
tp194
a(I144
I584
tp195
a(I564
I720
tp196
a(I564
I984
tp197
a(I440
I700
tp198
a(I440
I756
tp199
a(I824
I948
tp200
a(I52
I264
tp201
a(I52
I200
tp202
a(I52
I188
tp203
a(I828
I972
tp204
a(I300
I488
tp205
a(I688
I776
tp206
a(I472
I864
tp207
a(I172
I988
tp208
a(I172
I384
tp209
a(I420
I924
tp210
a(I420
I460
tp211
a(I804
I980
tp212
a(I32
I716
tp213
a(I32
I284
tp214
a(I32
I520
tp215
a(I516
I628
tp216
a(I800
I992
tp217
a(I800
I824
tp218
a(I800
I912
tp219
a(I28
I252
tp220
a(I28
I572
tp221
a(I416
I776
tp222
a(I592
I844
tp223
a(I204
I536
tp224
a(I204
I904
tp225
a(I204
I264
tp226
a(I556
I964
tp227
a(I168
I388
tp228
a(I168
I784
tp229
a(I412
I944
tp230
a(I412
I936
tp231
a(I24
I436
tp232
a(I24
I336
tp233
a(I100
I324
tp234
a(I100
I516
tp235
a(I100
I812
tp236
a(I872
I896
tp237
a(I60
I952
tp238
a(I60
I216
tp239
a(I448
I600
tp240
a(I448
I628
tp241
a(I504
I796
tp242
a(I504
I852
tp243
a(I680
I932
tp244
a(I680
I808
tp245
a(I292
I972
tp246
a(I292
I976
tp247
a(I292
I596
tp248
a(I500
I644
tp249
a(I500
I960
tp250
a(I288
I540
tp251
a(I288
I388
tp252
a(I156
I592
tp253
a(I156
I392
tp254
a(I444
I548
tp255
a(I20
I624
tp256
a(I20
I768
tp257
a(I20
I900
tp258
a(I704
I712
tp259
a(I704
I804
tp260
a(I704
I980
tp261
a(I280
I580
tp262
a(I280
I692
tp263
a(I280
I416
tp264
a(I476
I576
tp265
a(I476
I820
tp266
a(I88
I404
tp267
a(I88
I200
tp268
a(I88
I196
tp269
a(I124
I580
tp270
a(I124
I296
tp271
a(I124
I400
tp272
a(I512
I748
tp273
a(I512
I896
tp274
a(I396
I592
tp275
a(I572
I736
tp276
a(I184
I524
tp277
a(I184
I672
tp278
a(I624
I928
tp279
a(I624
I908
tp280
a(I324
I548
tp281
a(I332
I584
tp282
a(I332
I496
tp283
a(I332
I960
tp284
a(I508
I740
tp285
a(I508
I916
tp286
a(I120
I532
tp287
a(I816
I968
tp288
a(I188
I200
tp289
a(I188
I228
tp290
a(I612
I996
tp291
a(I612
I712
tp292
a(I160
I372
tp293
a(I160
I348
tp294
aaa(lp295
(lp296
(I460
I8
I780
tp297
a(I700
I44
I176
tp298
a(I720
I80
I640
tp299
a(I452
I216
I60
tp300
a(I100
I812
I992
tp301
a(I940
I320
I476
tp302
a(I788
I72
I372
tp303
a(I72
I788
I672
tp304
a(I516
I100
I324
tp305
a(I812
I100
I324
tp306
a(I812
I100
I516
tp307
a(I100
I516
I628
tp308
a(I408
I692
I280
tp309
a(I36
I340
I448
tp310
a(I772
I668
I352
tp311
a(I588
I668
I352
tp312
a(I588
I668
I772
tp313
a(I724
I436
I24
tp314
a(I928
I744
I616
tp315
a(I744
I928
I624
tp316
a(I720
I116
I160
tp317
a(I116
I720
I564
tp318
a(I80
I720
I116
tp319
a(I80
I720
I564
tp320
a(I892
I684
I432
tp321
a(I452
I12
I96
tp322
a(I12
I452
I472
tp323
a(I216
I452
I12
tp324
a(I216
I452
I472
tp325
a(I84
I224
I524
tp326
a(I88
I196
I760
tp327
a(I584
I144
I732
tp328
a(I144
I584
I332
tp329
a(I756
I408
I484
tp330
a(I692
I408
I484
tp331
a(I692
I408
I756
tp332
a(I688
I632
I492
tp333
a(I632
I688
I776
tp334
a(I424
I328
I728
tp335
a(I328
I424
I16
tp336
a(I496
I332
I584
tp337
a(I960
I332
I496
tp338
a(I960
I332
I584
tp339
a(I332
I496
I336
tp340
a(I672
I956
I276
tp341
a(I304
I964
I556
tp342
a(I500
I960
I304
tp343
a(I332
I960
I304
tp344
a(I332
I960
I500
tp345
a(I228
I140
I712
tp346
a(I652
I140
I228
tp347
a(I652
I140
I712
tp348
a(I460
I420
I924
tp349
a(I420
I460
I732
tp350
a(I8
I460
I420
tp351
a(I8
I460
I732
tp352
a(I424
I16
I908
tp353
a(I360
I948
I824
tp354
a(I372
I696
I256
tp355
a(I480
I696
I256
tp356
a(I480
I696
I372
tp357
a(I316
I220
I612
tp358
a(I220
I316
I252
tp359
a(I984
I56
I48
tp360
a(I604
I236
I844
tp361
a(I336
I644
I500
tp362
a(I48
I644
I336
tp363
a(I48
I644
I500
tp364
a(I852
I504
I796
tp365
a(I76
I660
I4
tp366
a(I380
I660
I4
tp367
a(I380
I660
I76
tp368
a(I856
I356
I816
tp369
a(I356
I856
I240
tp370
a(I996
I272
I784
tp371
a(I648
I244
I152
tp372
a(I544
I244
I152
tp373
a(I544
I244
I648
tp374
a(I244
I648
I876
tp375
a(I56
I48
I352
tp376
a(I644
I48
I56
tp377
a(I644
I48
I352
tp378
a(I628
I128
I552
tp379
a(I776
I64
I120
tp380
a(I400
I656
I772
tp381
a(I740
I544
I860
tp382
a(I244
I544
I740
tp383
a(I244
I544
I860
tp384
a(I360
I260
I756
tp385
a(I260
I360
I276
tp386
a(I948
I360
I260
tp387
a(I948
I360
I276
tp388
a(I708
I604
I900
tp389
a(I236
I604
I708
tp390
a(I236
I604
I900
tp391
a(I572
I28
I252
tp392
a(I28
I572
I736
tp393
a(I960
I304
I992
tp394
a(I964
I304
I960
tp395
a(I964
I304
I992
tp396
a(I148
I976
I292
tp397
a(I40
I664
I468
tp398
a(I428
I552
I128
tp399
a(I864
I92
I652
tp400
a(I348
I92
I652
tp401
a(I348
I92
I864
tp402
a(I904
I348
I160
tp403
a(I92
I348
I160
tp404
a(I92
I348
I904
tp405
a(I788
I672
I184
tp406
a(I956
I672
I184
tp407
a(I956
I672
I788
tp408
a(I808
I680
I932
tp409
a(I476
I820
I884
tp410
a(I64
I120
I532
tp411
a(I916
I508
I740
tp412
a(I452
I472
I864
tp413
a(I636
I920
I312
tp414
a(I172
I104
I536
tp415
a(I532
I104
I172
tp416
a(I532
I104
I536
tp417
a(I568
I532
I120
tp418
a(I104
I532
I120
tp419
a(I104
I532
I568
tp420
a(I988
I944
I412
tp421
a(I944
I988
I172
tp422
a(I936
I988
I172
tp423
a(I936
I988
I944
tp424
a(I792
I4
I660
tp425
a(I4
I792
I268
tp426
a(I384
I172
I988
tp427
a(I104
I172
I384
tp428
a(I104
I172
I988
tp429
a(I172
I384
I904
tp430
a(I940
I736
I572
tp431
a(I736
I940
I636
tp432
a(I320
I940
I636
tp433
a(I320
I940
I736
tp434
a(I364
I892
I152
tp435
a(I684
I892
I152
tp436
a(I684
I892
I364
tp437
a(I368
I256
I696
tp438
a(I756
I440
I700
tp439
a(I440
I756
I260
tp440
a(I408
I756
I260
tp441
a(I408
I756
I440
tp442
a(I388
I468
I664
tp443
a(I924
I368
I972
tp444
a(I256
I368
I924
tp445
a(I256
I368
I972
tp446
a(I368
I924
I420
tp447
a(I492
I568
I84
tp448
a(I532
I568
I84
tp449
a(I532
I568
I492
tp450
a(I832
I780
I8
tp451
a(I548
I780
I8
tp452
a(I548
I780
I832
tp453
a(I784
I168
I388
tp454
a(I804
I620
I888
tp455
a(I336
I24
I436
tp456
a(I24
I336
I496
tp457
a(I644
I336
I24
tp458
a(I644
I336
I496
tp459
a(I124
I400
I164
tp460
a(I656
I400
I124
tp461
a(I656
I400
I164
tp462
a(I852
I480
I308
tp463
a(I696
I480
I308
tp464
a(I696
I480
I852
tp465
a(I480
I852
I728
tp466
a(I504
I852
I480
tp467
a(I504
I852
I728
tp468
a(I92
I652
I608
tp469
a(I140
I652
I92
tp470
a(I140
I652
I608
tp471
a(I888
I432
I684
tp472
a(I432
I888
I620
tp473
a(I752
I84
I568
tp474
a(I224
I84
I568
tp475
a(I224
I84
I752
tp476
a(I84
I752
I900
tp477
a(I872
I752
I84
tp478
a(I872
I752
I900
tp479
a(I784
I380
I76
tp480
a(I660
I380
I76
tp481
a(I660
I380
I784
tp482
a(I380
I784
I272
tp483
a(I168
I784
I272
tp484
a(I168
I784
I380
tp485
a(I976
I292
I972
tp486
a(I596
I292
I972
tp487
a(I596
I292
I976
tp488
a(I248
I836
I808
tp489
a(I284
I836
I248
tp490
a(I284
I836
I808
tp491
a(I200
I88
I404
tp492
a(I196
I88
I200
tp493
a(I196
I88
I404
tp494
a(I544
I860
I528
tp495
a(I448
I628
I516
tp496
a(I128
I628
I448
tp497
a(I128
I628
I516
tp498
a(I16
I908
I624
tp499
a(I732
I828
I972
tp500
a(I488
I828
I732
tp501
a(I488
I828
I972
tp502
a(I800
I912
I40
tp503
a(I632
I492
I528
tp504
a(I568
I492
I528
tp505
a(I568
I492
I632
tp506
a(I652
I608
I264
tp507
a(I304
I992
I800
tp508
a(I812
I992
I304
tp509
a(I812
I992
I800
tp510
a(I48
I352
I668
tp511
a(I804
I704
I712
tp512
a(I980
I704
I712
tp513
a(I980
I704
I804
tp514
a(I164
I252
I28
tp515
a(I316
I252
I28
tp516
a(I316
I252
I164
tp517
a(I520
I248
I764
tp518
a(I836
I248
I520
tp519
a(I836
I248
I764
tp520
a(I248
I520
I32
tp521
a(I408
I484
I512
tp522
a(I840
I76
I380
tp523
a(I660
I76
I380
tp524
a(I660
I76
I840
tp525
a(I280
I416
I776
tp526
a(I208
I416
I280
tp527
a(I208
I416
I776
tp528
a(I860
I528
I492
tp529
a(I276
I308
I480
tp530
a(I824
I308
I276
tp531
a(I824
I308
I480
tp532
a(I460
I732
I144
tp533
a(I828
I732
I144
tp534
a(I828
I732
I460
tp535
a(I324
I232
I868
tp536
a(I868
I724
I768
tp537
a(I436
I724
I768
tp538
a(I436
I724
I868
tp539
a(I12
I96
I968
tp540
a(I724
I868
I232
tp541
a(I320
I476
I576
tp542
a(I820
I476
I320
tp543
a(I820
I476
I576
tp544
a(I704
I980
I804
tp545
a(I192
I208
I816
tp546
a(I416
I208
I192
tp547
a(I416
I208
I816
tp548
a(I384
I904
I204
tp549
a(I348
I904
I204
tp550
a(I348
I904
I384
tp551
a(I112
I524
I184
tp552
a(I224
I524
I112
tp553
a(I224
I524
I184
tp554
a(I104
I536
I204
tp555
a(I760
I536
I104
tp556
a(I760
I536
I204
tp557
a(I188
I228
I936
tp558
a(I140
I228
I188
tp559
a(I140
I228
I936
tp560
a(I248
I764
I560
tp561
a(I488
I716
I32
tp562
a(I200
I52
I264
tp563
a(I188
I52
I200
tp564
a(I188
I52
I264
tp565
a(I948
I824
I800
tp566
a(I308
I824
I800
tp567
a(I308
I824
I948
tp568
a(I852
I728
I328
tp569
a(I312
I464
I952
tp570
a(I40
I556
I964
tp571
a(I836
I808
I968
tp572
a(I680
I808
I836
tp573
a(I680
I808
I968
tp574
a(I396
I36
I412
tp575
a(I340
I36
I396
tp576
a(I340
I36
I412
tp577
a(I36
I396
I592
tp578
a(I884
I392
I156
tp579
a(I132
I392
I156
tp580
a(I132
I392
I884
tp581
a(I392
I884
I820
tp582
a(I844
I884
I392
tp583
a(I844
I884
I820
tp584
a(I500
I108
I996
tp585
a(I108
I500
I644
tp586
a(I960
I500
I108
tp587
a(I960
I500
I644
tp588
a(I108
I996
I612
tp589
a(I272
I996
I108
tp590
a(I272
I996
I612
tp591
a(I672
I184
I524
tp592
a(I340
I448
I600
tp593
a(I628
I448
I340
tp594
a(I628
I448
I600
tp595
a(I780
I832
I676
tp596
a(I216
I60
I952
tp597
a(I140
I712
I704
tp598
a(I612
I712
I140
tp599
a(I612
I712
I704
tp600
a(I100
I324
I548
tp601
a(I232
I324
I100
tp602
a(I232
I324
I548
tp603
a(I716
I488
I300
tp604
a(I828
I488
I300
tp605
a(I828
I488
I716
tp606
a(I68
I876
I648
tp607
a(I872
I740
I508
tp608
a(I544
I740
I508
tp609
a(I544
I740
I872
tp610
a(I740
I872
I896
tp611
a(I752
I872
I740
tp612
a(I752
I872
I896
tp613
a(I236
I844
I592
tp614
a(I884
I844
I236
tp615
a(I884
I844
I592
tp616
a(I0
I564
I720
tp617
a(I984
I564
I0
tp618
a(I984
I564
I720
tp619
a(I464
I952
I60
tp620
a(I376
I952
I60
tp621
a(I376
I952
I464
tp622
a(I564
I984
I0
tp623
a(I56
I984
I0
tp624
a(I56
I984
I564
tp625
a(I564
I0
I984
tp626
a(I932
I772
I656
tp627
a(I668
I772
I656
tp628
a(I668
I772
I932
tp629
a(I392
I156
I592
tp630
a(I348
I160
I372
tp631
a(I116
I160
I348
tp632
a(I116
I160
I372
tp633
a(I772
I932
I680
tp634
a(I704
I804
I980
tp635
a(I620
I804
I704
tp636
a(I620
I804
I980
tp637
a(I284
I32
I716
tp638
a(I520
I32
I284
tp639
a(I520
I32
I716
tp640
a(I32
I284
I700
tp641
a(I836
I284
I32
tp642
a(I836
I284
I700
tp643
a(I456
I404
I88
tp644
a(I344
I404
I88
tp645
a(I344
I404
I456
tp646
a(I792
I268
I180
tp647
a(I36
I412
I944
tp648
a(I936
I412
I36
tp649
a(I936
I412
I944
tp650
a(I824
I800
I992
tp651
a(I912
I800
I824
tp652
a(I912
I800
I992
tp653
a(I692
I280
I580
tp654
a(I416
I280
I580
tp655
a(I416
I280
I692
tp656
a(I388
I288
I540
tp657
a(I688
I776
I416
tp658
a(I64
I776
I416
tp659
a(I64
I776
I688
tp660
a(I288
I388
I168
tp661
a(I468
I388
I168
tp662
a(I468
I388
I288
tp663
a(I940
I636
I848
tp664
a(I920
I636
I848
tp665
a(I920
I636
I940
tp666
a(I244
I152
I312
tp667
a(I892
I152
I244
tp668
a(I892
I152
I312
tp669
a(I808
I968
I816
tp670
a(I96
I968
I808
tp671
a(I96
I968
I816
tp672
a(I124
I580
I280
tp673
a(I212
I444
I548
tp674
a(I768
I20
I624
tp675
a(I900
I20
I624
tp676
a(I900
I20
I768
tp677
a(I220
I612
I996
tp678
a(I712
I612
I220
tp679
a(I712
I612
I996
tp680
a(I52
I188
I200
tp681
a(I228
I188
I52
tp682
a(I228
I188
I200
tp683
a(I20
I768
I724
tp684
a(I536
I760
I196
tp685
a(I896
I760
I196
tp686
a(I896
I760
I536
tp687
a(I72
I372
I160
tp688
a(I696
I372
I72
tp689
a(I696
I372
I160
tp690
a(I284
I700
I440
tp691
a(I44
I700
I284
tp692
a(I44
I700
I440
tp693
a(I152
I312
I920
tp694
a(I464
I312
I152
tp695
a(I464
I312
I920
tp696
a(I556
I40
I912
tp697
a(I664
I40
I556
tp698
a(I664
I40
I912
tp699
a(I208
I816
I968
tp700
a(I356
I816
I208
tp701
a(I356
I816
I968
tp702
a(I956
I276
I360
tp703
a(I308
I276
I360
tp704
a(I308
I276
I956
tp705
a(I828
I972
I292
tp706
a(I368
I972
I292
tp707
a(I368
I972
I828
tp708
a(I52
I200
I188
tp709
a(I88
I200
I52
tp710
a(I88
I200
I188
tp711
a(I928
I624
I20
tp712
a(I908
I624
I20
tp713
a(I908
I624
I928
tp714
a(I252
I164
I400
tp715
a(I228
I936
I412
tp716
a(I988
I936
I228
tp717
a(I988
I936
I412
tp718
a(I324
I548
I444
tp719
a(I780
I548
I324
tp720
a(I780
I548
I444
tp721
a(I204
I264
I52
tp722
a(I608
I264
I52
tp723
a(I608
I264
I204
tp724
a(I136
I864
I472
tp725
a(I92
I864
I136
tp726
a(I92
I864
I472
tp727
a(I904
I204
I536
tp728
a(I264
I204
I536
tp729
a(I264
I204
I904
tp730
a(I396
I592
I156
tp731
a(I844
I592
I156
tp732
a(I844
I592
I396
tp733
a(I604
I900
I752
tp734
a(I20
I900
I604
tp735
a(I20
I900
I752
tp736
a(I896
I512
I748
tp737
a(I484
I512
I748
tp738
a(I484
I512
I896
tp739
a(I296
I124
I580
tp740
a(I400
I124
I296
tp741
a(I400
I124
I580
tp742
a(I512
I896
I872
tp743
a(I760
I896
I512
tp744
a(I760
I896
I872
tp745
aaa.