(lp1
(lp2
(lp3
(I776
I796
tp4
a(I276
I984
tp5
a(I592
I680
tp6
a(I708
I728
tp7
a(I940
I956
tp8
a(I512
I740
tp9
a(I744
I900
tp10
a(I620
I704
tp11
a(I684
I960
tp12
a(I668
I704
tp13
a(I464
I532
tp14
a(I564
I664
tp15
a(I76
I224
tp16
a(I76
I476
tp17
a(I912
I992
tp18
a(I728
I952
tp19
a(I308
I732
tp20
a(I308
I564
tp21
a(I712
I736
tp22
a(I828
I976
tp23
a(I560
I684
tp24
a(I560
I596
tp25
a(I672
I864
tp26
a(I672
I940
tp27
a(I700
I720
tp28
a(I568
I964
tp29
a(I320
I412
tp30
a(I524
I672
tp31
a(I588
I632
tp32
a(I480
I756
tp33
a(I480
I956
tp34
a(I724
I840
tp35
a(I444
I656
tp36
a(I800
I876
tp37
a(I800
I996
tp38
a(I652
I808
tp39
a(I344
I620
tp40
a(I732
I948
tp41
a(I252
I404
tp42
a(I252
I532
tp43
a(I252
I856
tp44
a(I368
I824
tp45
a(I368
I452
tp46
a(I428
I548
tp47
a(I636
I908
tp48
a(I120
I776
tp49
a(I120
I844
tp50
a(I108
I200
tp51
a(I108
I960
tp52
a(I768
I980
tp53
a(I816
I932
tp54
a(I400
I816
tp55
a(I492
I828
tp56
a(I492
I524
tp57
a(I440
I748
tp58
a(I440
I740
tp59
a(I372
I452
tp60
a(I372
I832
tp61
a(I228
I264
tp62
a(I228
I600
tp63
a(I476
I820
tp64
a(I376
I688
tp65
a(I376
I568
tp66
a(I280
I592
tp67
a(I280
I656
tp68
a(I280
I904
tp69
a(I420
I768
tp70
a(I420
I868
tp71
a(I972
I976
tp72
a(I624
I744
tp73
a(I624
I828
tp74
a(I872
I896
tp75
a(I236
I624
tp76
a(I236
I384
tp77
a(I760
I892
tp78
a(I596
I900
tp79
a(I124
I924
tp80
a(I124
I460
tp81
a(I140
I336
tp82
a(I140
I804
tp83
a(I140
I792
tp84
a(I848
I948
tp85
a(I60
I464
tp86
a(I60
I888
tp87
a(I60
I268
tp88
a(I296
I916
tp89
a(I296
I920
tp90
a(I500
I684
tp91
a(I516
I700
tp92
a(I520
I556
tp93
a(I520
I744
tp94
a(I520
I836
tp95
a(I432
I988
tp96
a(I432
I660
tp97
a(I432
I944
tp98
a(I736
I840
tp99
a(I396
I508
tp100
a(I612
I712
tp101
a(I268
I556
tp102
a(I268
I352
tp103
a(I380
I608
tp104
a(I380
I472
tp105
a(I112
I844
tp106
a(I112
I320
tp107
a(I112
I504
tp108
a(I552
I700
tp109
a(I660
I704
tp110
a(I24
I896
tp111
a(I24
I420
tp112
a(I24
I764
tp113
a(I300
I668
tp114
a(I300
I812
tp115
a(I332
I724
tp116
a(I332
I788
tp117
a(I340
I936
tp118
a(I340
I396
tp119
a(I540
I792
tp120
a(I404
I908
tp121
a(I676
I812
tp122
a(I692
I924
tp123
a(I204
I228
tp124
a(I172
I696
tp125
a(I172
I928
tp126
a(I608
I884
tp127
a(I272
I784
tp128
a(I272
I716
tp129
a(I272
I408
tp130
a(I456
I536
tp131
a(I456
I848
tp132
a(I456
I516
tp133
a(I224
I788
tp134
a(I224
I380
tp135
a(I16
I488
tp136
a(I16
I152
tp137
a(I16
I336
tp138
a(I600
I936
tp139
a(I72
I156
tp140
a(I72
I868
tp141
a(I72
I276
tp142
a(I544
I596
tp143
a(I544
I644
tp144
a(I544
I716
tp145
a(I556
I632
tp146
a(I168
I804
tp147
a(I168
I960
tp148
a(I4
I80
tp149
a(I4
I276
tp150
a(I4
I576
tp151
a(I392
I516
tp152
a(I316
I780
tp153
a(I316
I400
tp154
a(I316
I964
tp155
a(I532
I920
tp156
a(I144
I496
tp157
a(I144
I756
tp158
a(I144
I836
tp159
a(I156
I392
tp160
a(I156
I748
tp161
a(I180
I300
tp162
a(I180
I832
tp163
a(I180
I488
tp164
a(I644
I724
tp165
a(I644
I768
tp166
a(I200
I904
tp167
a(I292
I868
tp168
a(I292
I740
tp169
a(I216
I344
tp170
a(I216
I400
tp171
a(I216
I876
tp172
a(I328
I832
tp173
a(I328
I956
tp174
a(I244
I444
tp175
a(I244
I436
tp176
a(I244
I892
tp177
a(I56
I728
tp178
a(I56
I680
tp179
a(I56
I852
tp180
a(I164
I656
tp181
a(I164
I440
tp182
a(I164
I932
tp183
a(I64
I192
tp184
a(I64
I972
tp185
a(I64
I524
tp186
a(I412
I880
tp187
a(I412
I808
tp188
a(I248
I660
tp189
a(I248
I888
tp190
a(I248
I920
tp191
a(I176
I448
tp192
a(I176
I752
tp193
a(I176
I876
tp194
a(I764
I916
tp195
a(I764
I796
tp196
a(I508
I652
tp197
a(I264
I592
tp198
a(I12
I404
tp199
a(I12
I128
tp200
a(I12
I572
tp201
a(I384
I824
tp202
a(I448
I612
tp203
a(I136
I468
tp204
a(I136
I448
tp205
a(I136
I996
tp206
a(I356
I620
tp207
a(I356
I452
tp208
a(I604
I804
tp209
a(I604
I996
tp210
a(I604
I784
tp211
a(I104
I500
tp212
a(I104
I796
tp213
a(I104
I872
tp214
a(I880
I968
tp215
a(I664
I992
tp216
a(I664
I784
tp217
a(I232
I780
tp218
a(I232
I484
tp219
a(I232
I588
tp220
a(I284
I720
tp221
a(I284
I756
tp222
a(I284
I972
tp223
a(I352
I640
tp224
a(I352
I668
tp225
a(I160
I988
tp226
a(I160
I792
tp227
a(I160
I772
tp228
a(I548
I676
tp229
a(I548
I860
tp230
a(I196
I444
tp231
a(I196
I964
tp232
a(I196
I200
tp233
a(I584
I952
tp234
a(I0
I264
tp235
a(I0
I928
tp236
a(I0
I500
tp237
a(I388
I468
tp238
a(I388
I912
tp239
a(I36
I76
tp240
a(I36
I100
tp241
a(I36
I508
tp242
a(I424
I848
tp243
a(I424
I608
tp244
a(I424
I992
tp245
a(I212
I840
tp246
a(I212
I408
tp247
a(I212
I436
tp248
a(I192
I320
tp249
a(I192
I924
tp250
a(I580
I720
tp251
a(I580
I984
tp252
a(I240
I632
tp253
a(I240
I376
tp254
a(I240
I680
tp255
a(I628
I816
tp256
a(I628
I732
tp257
a(I628
I856
tp258
a(I88
I568
tp259
a(I88
I932
tp260
a(I88
I296
tp261
a(I860
I980
tp262
a(I472
I864
tp263
a(I472
I540
tp264
a(I84
I676
tp265
a(I84
I980
tp266
a(I84
I900
tp267
a(I40
I800
tp268
a(I40
I780
tp269
a(I128
I308
tp270
a(I128
I536
tp271
a(I696
I824
tp272
a(I696
I772
tp273
a(I504
I916
tp274
a(I504
I776
tp275
a(I116
I708
tp276
a(I116
I348
tp277
a(I116
I172
tp278
a(I148
I484
tp279
a(I148
I528
tp280
a(I148
I512
tp281
a(I536
I968
tp282
a(I324
I436
tp283
a(I324
I612
tp284
a(I648
I896
tp285
a(I648
I892
tp286
a(I648
I736
tp287
a(I260
I908
tp288
a(I260
I488
tp289
a(I820
I864
tp290
a(I48
I760
tp291
a(I48
I364
tp292
a(I48
I168
tp293
a(I100
I600
tp294
a(I312
I636
tp295
a(I312
I332
tp296
a(I80
I560
tp297
a(I80
I708
tp298
a(I304
I484
tp299
a(I304
I428
tp300
a(I304
I564
tp301
a(I92
I468
tp302
a(I92
I204
tp303
a(I92
I988
tp304
a(I208
I808
tp305
a(I208
I572
tp306
a(I32
I588
tp307
a(I32
I496
tp308
a(I32
I584
tp309
a(I68
I100
tp310
a(I68
I324
tp311
a(I68
I948
tp312
a(I572
I940
tp313
a(I184
I476
tp314
a(I184
I340
tp315
a(I184
I392
tp316
a(I408
I512
tp317
a(I20
I396
tp318
a(I20
I872
tp319
a(I20
I52
tp320
a(I360
I752
tp321
a(I360
I856
tp322
a(I360
I880
tp323
a(I96
I836
tp324
a(I96
I368
tp325
a(I416
I692
tp326
a(I28
I208
tp327
a(I28
I944
tp328
a(I28
I636
tp329
a(I220
I944
tp330
a(I220
I312
tp331
a(I220
I712
tp332
a(I8
I416
tp333
a(I8
I976
tp334
a(I8
I528
tp335
a(I348
I540
tp336
a(I348
I388
tp337
a(I904
I952
tp338
a(I132
I584
tp339
a(I132
I716
tp340
a(I132
I984
tp341
a(I152
I860
tp342
a(I152
I788
tp343
a(I188
I552
tp344
a(I188
I968
tp345
a(I188
I688
tp346
a(I576
I820
tp347
a(I576
I884
tp348
a(I364
I888
tp349
a(I364
I640
tp350
a(I52
I748
tp351
a(I52
I936
tp352
a(I44
I96
tp353
a(I44
I356
tp354
a(I44
I852
tp355
a(I256
I328
tp356
a(I256
I260
tp357
a(I256
I428
tp358
a(I616
I844
tp359
a(I616
I928
tp360
a(I616
I652
tp361
a(I460
I528
tp362
a(I460
I496
tp363
a(I288
I912
tp364
a(I288
I852
tp365
aaa(lp366
(lp367
(I984
I580
I720
tp368
a(I580
I984
I132
tp369
a(I276
I984
I132
tp370
a(I276
I984
I580
tp371
a(I160
I772
I696
tp372
a(I16
I336
I140
tp373
a(I672
I940
I572
tp374
a(I956
I940
I572
tp375
a(I956
I940
I672
tp376
a(I832
I372
I452
tp377
a(I668
I704
I660
tp378
a(I620
I704
I660
tp379
a(I620
I704
I668
tp380
a(I532
I464
I60
tp381
a(I440
I740
I292
tp382
a(I512
I740
I292
tp383
a(I512
I740
I440
tp384
a(I168
I960
I108
tp385
a(I684
I960
I108
tp386
a(I684
I960
I168
tp387
a(I152
I16
I488
tp388
a(I336
I16
I152
tp389
a(I336
I16
I488
tp390
a(I240
I680
I56
tp391
a(I592
I680
I56
tp392
a(I592
I680
I240
tp393
a(I460
I124
I924
tp394
a(I744
I520
I556
tp395
a(I836
I520
I556
tp396
a(I836
I520
I744
tp397
a(I520
I744
I624
tp398
a(I900
I744
I520
tp399
a(I900
I744
I624
tp400
a(I664
I564
I304
tp401
a(I308
I564
I304
tp402
a(I308
I564
I664
tp403
a(I224
I76
I36
tp404
a(I476
I76
I36
tp405
a(I476
I76
I224
tp406
a(I48
I168
I804
tp407
a(I960
I168
I48
tp408
a(I960
I168
I804
tp409
a(I384
I236
I624
tp410
a(I236
I384
I824
tp411
a(I928
I172
I696
tp412
a(I116
I172
I696
tp413
a(I116
I172
I928
tp414
a(I912
I992
I664
tp415
a(I424
I992
I664
tp416
a(I424
I992
I912
tp417
a(I628
I856
I360
tp418
a(I252
I856
I360
tp419
a(I252
I856
I628
tp420
a(I952
I728
I56
tp421
a(I708
I728
I56
tp422
a(I708
I728
I952
tp423
a(I956
I480
I756
tp424
a(I480
I956
I328
tp425
a(I940
I956
I328
tp426
a(I940
I956
I480
tp427
a(I732
I308
I128
tp428
a(I564
I308
I128
tp429
a(I564
I308
I732
tp430
a(I380
I224
I788
tp431
a(I76
I224
I380
tp432
a(I76
I224
I788
tp433
a(I208
I572
I940
tp434
a(I12
I572
I208
tp435
a(I12
I572
I940
tp436
a(I364
I640
I352
tp437
a(I684
I560
I80
tp438
a(I596
I560
I80
tp439
a(I596
I560
I684
tp440
a(I560
I684
I500
tp441
a(I960
I684
I500
tp442
a(I960
I684
I560
tp443
a(I84
I900
I596
tp444
a(I744
I900
I84
tp445
a(I744
I900
I596
tp446
a(I656
I280
I592
tp447
a(I904
I280
I592
tp448
a(I904
I280
I656
tp449
a(I864
I672
I524
tp450
a(I940
I672
I524
tp451
a(I940
I672
I864
tp452
a(I960
I108
I200
tp453
a(I796
I764
I916
tp454
a(I24
I764
I796
tp455
a(I24
I764
I916
tp456
a(I764
I796
I104
tp457
a(I776
I796
I104
tp458
a(I776
I796
I764
tp459
a(I320
I412
I880
tp460
a(I808
I412
I320
tp461
a(I808
I412
I880
tp462
a(I356
I452
I372
tp463
a(I368
I452
I356
tp464
a(I368
I452
I372
tp465
a(I632
I588
I32
tp466
a(I232
I588
I32
tp467
a(I232
I588
I632
tp468
a(I524
I492
I828
tp469
a(I492
I524
I64
tp470
a(I672
I524
I64
tp471
a(I672
I524
I492
tp472
a(I608
I424
I848
tp473
a(I992
I424
I608
tp474
a(I992
I424
I848
tp475
a(I648
I736
I840
tp476
a(I712
I736
I648
tp477
a(I712
I736
I840
tp478
a(I72
I276
I4
tp479
a(I984
I276
I4
tp480
a(I984
I276
I72
tp481
a(I496
I460
I528
tp482
a(I124
I460
I496
tp483
a(I124
I460
I528
tp484
a(I844
I120
I776
tp485
a(I376
I568
I88
tp486
a(I964
I568
I88
tp487
a(I964
I568
I376
tp488
a(I316
I964
I196
tp489
a(I568
I964
I196
tp490
a(I568
I964
I316
tp491
a(I444
I656
I164
tp492
a(I280
I656
I164
tp493
a(I280
I656
I444
tp494
a(I148
I512
I408
tp495
a(I740
I512
I148
tp496
a(I740
I512
I408
tp497
a(I420
I24
I896
tp498
a(I764
I24
I420
tp499
a(I764
I24
I896
tp500
a(I24
I420
I768
tp501
a(I868
I420
I24
tp502
a(I868
I420
I768
tp503
a(I876
I800
I40
tp504
a(I996
I800
I40
tp505
a(I996
I800
I876
tp506
a(I260
I256
I328
tp507
a(I428
I256
I260
tp508
a(I428
I256
I328
tp509
a(I652
I808
I208
tp510
a(I412
I808
I208
tp511
a(I412
I808
I652
tp512
a(I216
I876
I176
tp513
a(I800
I876
I176
tp514
a(I800
I876
I216
tp515
a(I996
I604
I804
tp516
a(I784
I604
I804
tp517
a(I784
I604
I996
tp518
a(I604
I996
I136
tp519
a(I800
I996
I136
tp520
a(I800
I996
I604
tp521
a(I532
I252
I404
tp522
a(I856
I252
I404
tp523
a(I856
I252
I532
tp524
a(I252
I532
I920
tp525
a(I464
I532
I252
tp526
a(I464
I532
I920
tp527
a(I620
I344
I216
tp528
a(I344
I620
I356
tp529
a(I704
I620
I344
tp530
a(I704
I620
I356
tp531
a(I948
I732
I628
tp532
a(I308
I732
I628
tp533
a(I308
I732
I948
tp534
a(I732
I948
I848
tp535
a(I68
I948
I732
tp536
a(I68
I948
I848
tp537
a(I824
I368
I96
tp538
a(I452
I368
I96
tp539
a(I452
I368
I824
tp540
a(I364
I48
I760
tp541
a(I168
I48
I364
tp542
a(I168
I48
I760
tp543
a(I48
I364
I888
tp544
a(I640
I364
I48
tp545
a(I640
I364
I888
tp546
a(I548
I428
I304
tp547
a(I256
I428
I304
tp548
a(I256
I428
I548
tp549
a(I788
I152
I860
tp550
a(I16
I152
I788
tp551
a(I16
I152
I860
tp552
a(I856
I360
I752
tp553
a(I880
I360
I752
tp554
a(I880
I360
I856
tp555
a(I120
I776
I504
tp556
a(I796
I776
I120
tp557
a(I796
I776
I504
tp558
a(I188
I688
I376
tp559
a(I964
I196
I444
tp560
a(I200
I196
I444
tp561
a(I200
I196
I964
tp562
a(I624
I828
I492
tp563
a(I976
I828
I492
tp564
a(I976
I828
I624
tp565
a(I108
I200
I904
tp566
a(I196
I200
I108
tp567
a(I196
I200
I904
tp568
a(I816
I932
I88
tp569
a(I164
I932
I88
tp570
a(I164
I932
I816
tp571
a(I400
I816
I628
tp572
a(I932
I816
I400
tp573
a(I932
I816
I628
tp574
a(I332
I788
I224
tp575
a(I152
I788
I224
tp576
a(I152
I788
I332
tp577
a(I716
I132
I584
tp578
a(I984
I132
I584
tp579
a(I984
I132
I716
tp580
a(I132
I716
I272
tp581
a(I544
I716
I132
tp582
a(I544
I716
I272
tp583
a(I868
I72
I156
tp584
a(I276
I72
I156
tp585
a(I276
I72
I868
tp586
a(I72
I868
I292
tp587
a(I420
I868
I72
tp588
a(I420
I868
I292
tp589
a(I748
I440
I164
tp590
a(I740
I440
I164
tp591
a(I740
I440
I748
tp592
a(I144
I836
I96
tp593
a(I520
I836
I96
tp594
a(I520
I836
I144
tp595
a(I740
I292
I868
tp596
a(I264
I228
I204
tp597
a(I600
I228
I204
tp598
a(I600
I228
I264
tp599
a(I716
I272
I784
tp600
a(I408
I272
I716
tp601
a(I408
I272
I784
tp602
a(I820
I476
I184
tp603
a(I76
I476
I184
tp604
a(I76
I476
I820
tp605
a(I888
I60
I464
tp606
a(I268
I60
I464
tp607
a(I268
I60
I888
tp608
a(I220
I712
I612
tp609
a(I736
I712
I220
tp610
a(I736
I712
I612
tp611
a(I804
I140
I336
tp612
a(I792
I140
I336
tp613
a(I792
I140
I804
tp614
a(I688
I376
I240
tp615
a(I568
I376
I240
tp616
a(I568
I376
I688
tp617
a(I352
I668
I300
tp618
a(I704
I668
I300
tp619
a(I704
I668
I352
tp620
a(I280
I592
I264
tp621
a(I680
I592
I264
tp622
a(I680
I592
I280
tp623
a(I616
I652
I508
tp624
a(I808
I652
I508
tp625
a(I808
I652
I616
tp626
a(I420
I768
I644
tp627
a(I980
I768
I420
tp628
a(I980
I768
I644
tp629
a(I976
I972
I64
tp630
a(I284
I972
I64
tp631
a(I284
I972
I976
tp632
a(I972
I976
I8
tp633
a(I828
I976
I8
tp634
a(I828
I976
I972
tp635
a(I744
I624
I236
tp636
a(I828
I624
I236
tp637
a(I828
I624
I744
tp638
a(I776
I504
I916
tp639
a(I112
I504
I776
tp640
a(I112
I504
I916
tp641
a(I796
I104
I500
tp642
a(I872
I104
I500
tp643
a(I872
I104
I796
tp644
a(I388
I912
I288
tp645
a(I992
I912
I288
tp646
a(I992
I912
I388
tp647
a(I832
I180
I300
tp648
a(I488
I180
I300
tp649
a(I488
I180
I832
tp650
a(I180
I832
I328
tp651
a(I372
I832
I180
tp652
a(I372
I832
I328
tp653
a(I296
I920
I532
tp654
a(I248
I920
I296
tp655
a(I248
I920
I532
tp656
a(I300
I812
I676
tp657
a(I400
I316
I780
tp658
a(I964
I316
I400
tp659
a(I964
I316
I780
tp660
a(I316
I400
I216
tp661
a(I816
I400
I216
tp662
a(I816
I400
I316
tp663
a(I312
I332
I724
tp664
a(I788
I332
I312
tp665
a(I788
I332
I724
tp666
a(I472
I380
I608
tp667
a(I224
I380
I472
tp668
a(I224
I380
I608
tp669
a(I896
I872
I20
tp670
a(I104
I872
I20
tp671
a(I104
I872
I896
tp672
a(I660
I432
I988
tp673
a(I944
I432
I660
tp674
a(I944
I432
I988
tp675
a(I44
I852
I288
tp676
a(I56
I852
I44
tp677
a(I56
I852
I288
tp678
a(I892
I760
I48
tp679
a(I760
I892
I648
tp680
a(I244
I892
I648
tp681
a(I244
I892
I760
tp682
a(I900
I596
I544
tp683
a(I560
I596
I544
tp684
a(I560
I596
I900
tp685
a(I352
I268
I556
tp686
a(I60
I268
I352
tp687
a(I60
I268
I556
tp688
a(I268
I352
I640
tp689
a(I668
I352
I268
tp690
a(I668
I352
I640
tp691
a(I192
I924
I692
tp692
a(I124
I924
I192
tp693
a(I124
I924
I692
tp694
a(I916
I296
I88
tp695
a(I920
I296
I88
tp696
a(I920
I296
I916
tp697
a(I684
I500
I104
tp698
a(I0
I500
I104
tp699
a(I0
I500
I684
tp700
a(I488
I260
I908
tp701
a(I256
I260
I488
tp702
a(I256
I260
I908
tp703
a(I260
I488
I16
tp704
a(I180
I488
I16
tp705
a(I180
I488
I260
tp706
a(I972
I64
I192
tp707
a(I524
I64
I192
tp708
a(I524
I64
I972
tp709
a(I700
I516
I392
tp710
a(I456
I516
I392
tp711
a(I456
I516
I700
tp712
a(I516
I700
I552
tp713
a(I720
I700
I516
tp714
a(I720
I700
I552
tp715
a(I756
I284
I720
tp716
a(I972
I284
I720
tp717
a(I972
I284
I756
tp718
a(I284
I756
I144
tp719
a(I480
I756
I144
tp720
a(I480
I756
I284
tp721
a(I28
I636
I312
tp722
a(I908
I636
I28
tp723
a(I908
I636
I312
tp724
a(I848
I456
I536
tp725
a(I516
I456
I536
tp726
a(I516
I456
I848
tp727
a(I456
I848
I424
tp728
a(I948
I848
I424
tp729
a(I948
I848
I456
tp730
a(I12
I128
I308
tp731
a(I536
I128
I12
tp732
a(I536
I128
I308
tp733
a(I680
I56
I728
tp734
a(I852
I56
I680
tp735
a(I852
I56
I728
tp736
a(I112
I320
I192
tp737
a(I412
I320
I112
tp738
a(I412
I320
I192
tp739
a(I348
I388
I468
tp740
a(I912
I388
I348
tp741
a(I912
I388
I468
tp742
a(I508
I396
I20
tp743
a(I340
I396
I20
tp744
a(I340
I396
I508
tp745
a(I428
I304
I484
tp746
a(I564
I304
I428
tp747
a(I564
I304
I484
tp748
a(I780
I40
I800
tp749
a(I712
I612
I448
tp750
a(I324
I612
I448
tp751
a(I324
I612
I712
tp752
a(I432
I988
I160
tp753
a(I92
I988
I160
tp754
a(I92
I988
I432
tp755
a(I400
I216
I344
tp756
a(I876
I216
I344
tp757
a(I876
I216
I400
tp758
a(I268
I556
I632
tp759
a(I520
I556
I268
tp760
a(I520
I556
I632
tp761
a(I380
I608
I884
tp762
a(I424
I608
I380
tp763
a(I424
I608
I884
tp764
a(I528
I148
I484
tp765
a(I512
I148
I484
tp766
a(I512
I148
I528
tp767
a(I148
I528
I460
tp768
a(I8
I528
I148
tp769
a(I8
I528
I460
tp770
a(I952
I904
I200
tp771
a(I280
I904
I200
tp772
a(I280
I904
I952
tp773
a(I904
I952
I584
tp774
a(I728
I952
I584
tp775
a(I728
I952
I904
tp776
a(I112
I844
I616
tp777
a(I120
I844
I112
tp778
a(I120
I844
I616
tp779
a(I700
I552
I188
tp780
a(I276
I4
I80
tp781
a(I576
I4
I80
tp782
a(I576
I4
I276
tp783
a(I704
I660
I248
tp784
a(I432
I660
I248
tp785
a(I432
I660
I704
tp786
a(I24
I896
I648
tp787
a(I872
I896
I24
tp788
a(I872
I896
I648
tp789
a(I36
I508
I652
tp790
a(I396
I508
I36
tp791
a(I396
I508
I652
tp792
a(I668
I300
I180
tp793
a(I812
I300
I180
tp794
a(I812
I300
I668
tp795
a(I332
I724
I644
tp796
a(I840
I724
I332
tp797
a(I840
I724
I644
tp798
a(I936
I340
I184
tp799
a(I396
I340
I184
tp800
a(I396
I340
I936
tp801
a(I356
I44
I96
tp802
a(I852
I44
I96
tp803
a(I852
I44
I356
tp804
a(I44
I356
I620
tp805
a(I452
I356
I44
tp806
a(I452
I356
I620
tp807
a(I752
I176
I448
tp808
a(I876
I176
I448
tp809
a(I876
I176
I752
tp810
a(I176
I752
I360
tp811
a(I908
I404
I12
tp812
a(I252
I404
I12
tp813
a(I252
I404
I908
tp814
a(I448
I136
I468
tp815
a(I996
I136
I448
tp816
a(I996
I136
I468
tp817
a(I404
I908
I260
tp818
a(I636
I908
I260
tp819
a(I636
I908
I404
tp820
a(I156
I748
I52
tp821
a(I440
I748
I52
tp822
a(I440
I748
I156
tp823
a(I888
I248
I660
tp824
a(I920
I248
I660
tp825
a(I920
I248
I888
tp826
a(I348
I116
I708
tp827
a(I172
I116
I348
tp828
a(I172
I116
I708
tp829
a(I248
I888
I364
tp830
a(I60
I888
I248
tp831
a(I60
I888
I364
tp832
a(I100
I36
I76
tp833
a(I508
I36
I76
tp834
a(I508
I36
I100
tp835
a(I924
I692
I416
tp836
a(I172
I696
I824
tp837
a(I772
I696
I172
tp838
a(I772
I696
I824
tp839
a(I928
I616
I844
tp840
a(I652
I616
I844
tp841
a(I652
I616
I928
tp842
a(I128
I12
I404
tp843
a(I572
I12
I128
tp844
a(I572
I12
I404
tp845
a(I272
I784
I664
tp846
a(I604
I784
I272
tp847
a(I604
I784
I664
tp848
a(I456
I536
I968
tp849
a(I128
I536
I456
tp850
a(I128
I536
I968
tp851
a(I544
I644
I724
tp852
a(I768
I644
I544
tp853
a(I768
I644
I724
tp854
a(I764
I916
I504
tp855
a(I296
I916
I504
tp856
a(I296
I916
I764
tp857
a(I756
I144
I496
tp858
a(I836
I144
I496
tp859
a(I836
I144
I756
tp860
a(I784
I664
I992
tp861
a(I564
I664
I784
tp862
a(I564
I664
I992
tp863
a(I408
I212
I840
tp864
a(I436
I212
I408
tp865
a(I436
I212
I840
tp866
a(I936
I600
I100
tp867
a(I228
I600
I100
tp868
a(I228
I600
I936
tp869
a(I644
I544
I596
tp870
a(I716
I544
I596
tp871
a(I716
I544
I644
tp872
a(I616
I928
I0
tp873
a(I172
I928
I0
tp874
a(I172
I928
I616
tp875
a(I72
I156
I392
tp876
a(I748
I156
I72
tp877
a(I748
I156
I392
tp878
a(I436
I244
I444
tp879
a(I892
I244
I436
tp880
a(I892
I244
I444
tp881
a(I556
I632
I240
tp882
a(I588
I632
I240
tp883
a(I588
I632
I556
tp884
a(I516
I392
I156
tp885
a(I184
I392
I156
tp886
a(I184
I392
I516
tp887
a(I976
I8
I416
tp888
a(I528
I8
I416
tp889
a(I528
I8
I976
tp890
a(I316
I780
I232
tp891
a(I40
I780
I232
tp892
a(I40
I780
I316
tp893
a(I320
I112
I844
tp894
a(I504
I112
I320
tp895
a(I504
I112
I844
tp896
a(I608
I884
I576
tp897
a(I144
I496
I32
tp898
a(I460
I496
I32
tp899
a(I460
I496
I144
tp900
a(I312
I220
I944
tp901
a(I712
I220
I312
tp902
a(I712
I220
I944
tp903
a(I220
I312
I636
tp904
a(I332
I312
I220
tp905
a(I332
I312
I636
tp906
a(I820
I864
I472
tp907
a(I672
I864
I472
tp908
a(I672
I864
I820
tp909
a(I204
I92
I468
tp910
a(I988
I92
I204
tp911
a(I988
I92
I468
tp912
a(I228
I204
I92
tp913
a(I808
I208
I28
tp914
a(I572
I208
I28
tp915
a(I572
I208
I808
tp916
a(I84
I980
I860
tp917
a(I768
I980
I84
tp918
a(I768
I980
I860
tp919
a(I548
I676
I84
tp920
a(I812
I676
I84
tp921
a(I812
I676
I548
tp922
a(I852
I288
I912
tp923
a(I68
I324
I436
tp924
a(I612
I324
I68
tp925
a(I612
I324
I436
tp926
a(I880
I968
I536
tp927
a(I188
I968
I536
tp928
a(I188
I968
I880
tp929
a(I64
I192
I320
tp930
a(I924
I192
I64
tp931
a(I924
I192
I320
tp932
a(I176
I448
I612
tp933
a(I136
I448
I176
tp934
a(I136
I448
I612
tp935
a(I44
I96
I836
tp936
a(I368
I96
I44
tp937
a(I368
I96
I836
tp938
a(I148
I484
I304
tp939
a(I232
I484
I148
tp940
a(I232
I484
I304
tp941
a(I244
I444
I196
tp942
a(I656
I444
I196
tp943
a(I656
I444
I244
tp944
a(I484
I232
I780
tp945
a(I588
I232
I484
tp946
a(I588
I232
I780
tp947
a(I212
I408
I512
tp948
a(I272
I408
I212
tp949
a(I272
I408
I512
tp950
a(I540
I792
I160
tp951
a(I140
I792
I160
tp952
a(I140
I792
I540
tp953
a(I872
I20
I396
tp954
a(I52
I20
I396
tp955
a(I52
I20
I872
tp956
a(I736
I840
I212
tp957
a(I724
I840
I212
tp958
a(I724
I840
I736
tp959
a(I324
I68
I100
tp960
a(I948
I68
I100
tp961
a(I948
I68
I324
tp962
a(I792
I160
I988
tp963
a(I772
I160
I792
tp964
a(I772
I160
I988
tp965
a(I440
I164
I656
tp966
a(I932
I164
I440
tp967
a(I932
I164
I656
tp968
a(I600
I936
I52
tp969
a(I340
I936
I52
tp970
a(I340
I936
I600
tp971
a(I860
I548
I676
tp972
a(I428
I548
I676
tp973
a(I428
I548
I860
tp974
a(I968
I188
I552
tp975
a(I688
I188
I552
tp976
a(I688
I188
I968
tp977
a(I884
I576
I820
tp978
a(I4
I576
I820
tp979
a(I4
I576
I884
tp980
a(I388
I468
I92
tp981
a(I136
I468
I92
tp982
a(I136
I468
I388
tp983
a(I708
I80
I560
tp984
a(I4
I80
I560
tp985
a(I4
I80
I708
tp986
a(I244
I436
I324
tp987
a(I212
I436
I244
tp988
a(I212
I436
I324
tp989
a(I936
I52
I748
tp990
a(I20
I52
I748
tp991
a(I20
I52
I936
tp992
a(I384
I824
I696
tp993
a(I368
I824
I384
tp994
a(I368
I824
I696
tp995
a(I80
I708
I116
tp996
a(I728
I708
I80
tp997
a(I728
I708
I116
tp998
a(I340
I184
I476
tp999
a(I392
I184
I340
tp1000
a(I392
I184
I476
tp1001
a(I864
I820
I576
tp1002
a(I476
I820
I576
tp1003
a(I476
I820
I864
tp1004
a(I980
I84
I676
tp1005
a(I900
I84
I676
tp1006
a(I900
I84
I980
tp1007
a(I932
I88
I568
tp1008
a(I296
I88
I568
tp1009
a(I296
I88
I932
tp1010
a(I152
I860
I980
tp1011
a(I548
I860
I152
tp1012
a(I548
I860
I980
tp1013
a(I540
I472
I864
tp1014
a(I380
I472
I540
tp1015
a(I380
I472
I864
tp1016
a(I832
I328
I256
tp1017
a(I956
I328
I256
tp1018
a(I956
I328
I832
tp1019
a(I472
I540
I348
tp1020
a(I792
I540
I348
tp1021
a(I792
I540
I472
tp1022
a(I892
I648
I896
tp1023
a(I736
I648
I892
tp1024
a(I736
I648
I896
tp1025
a(I496
I32
I588
tp1026
a(I584
I32
I496
tp1027
a(I584
I32
I588
tp1028
a(I168
I804
I604
tp1029
a(I140
I804
I168
tp1030
a(I140
I804
I604
tp1031
a(I944
I28
I208
tp1032
a(I636
I28
I208
tp1033
a(I636
I28
I944
tp1034
a(I692
I416
I8
tp1035
a(I376
I240
I632
tp1036
a(I680
I240
I376
tp1037
a(I680
I240
I632
tp1038
a(I732
I628
I816
tp1039
a(I856
I628
I732
tp1040
a(I856
I628
I816
tp1041
a(I116
I348
I540
tp1042
a(I388
I348
I116
tp1043
a(I388
I348
I540
tp1044
a(I928
I0
I264
tp1045
a(I500
I0
I264
tp1046
a(I500
I0
I928
tp1047
a(I28
I944
I220
tp1048
a(I432
I944
I28
tp1049
a(I432
I944
I220
tp1050
a(I284
I720
I580
tp1051
a(I700
I720
I284
tp1052
a(I700
I720
I580
tp1053
a(I952
I584
I132
tp1054
a(I32
I584
I132
tp1055
a(I32
I584
I952
tp1056
a(I600
I100
I68
tp1057
a(I36
I100
I68
tp1058
a(I36
I100
I600
tp1059
a(I412
I880
I968
tp1060
a(I360
I880
I412
tp1061
a(I360
I880
I968
tp1062
a(I592
I264
I0
tp1063
a(I228
I264
I0
tp1064
a(I228
I264
I592
tp1065
aaa.