(lp1
(dp2
S'lambda_adr'
p3
F1
sS'state'
p4
I2
sS'res_id'
p5
I0
sS'mass'
p6
F1
sS'v'
c_espressopp
Real3D
p7
(F-0.11559051903711987
F-0.27710123466826347
F0.36366814798841779
tRp8
sS'type'
p9
I1
sS'pid'
p10
I0
sS'pos'
p11
g7
(F4.0457279015993546
F2.8990156788049322
F3.5638268200398309
tRp12
sa(dp13
g3
F0
sg4
I4
sg5
I1
sg6
F0.20000000000000001
sS'v'
g7
(F-0.21689050770125784
F-0.070778251433052192
F-0.73248946725528341
tRp14
sg9
I4
sg10
I1
sg11
g7
(F3.8297644442313272
F2.8285399532973892
F2.8344682164258561
tRp15
sa(dp16
g3
F1
sg4
I2
sg5
I2
sg6
F1
sS'v'
g7
(F0.019686869121178514
F0.74354816859274853
F0.89278346492871441
tRp17
sg9
I1
sg10
I2
sg11
g7
(F3.9365396315404433
F1.8874212888622026
F3.2802433090411998
tRp18
sa(dp19
g3
F0
sg4
I4
sg5
I3
sg6
F0.20000000000000001
sS'v'
g7
(F0.07794258098802774
F1.2560733375446587
F-0.27446252211662253
tRp20
sg9
I4
sg10
I3
sg11
g7
(F3.8900031645941597
F1.1374690212598031
F3.4441141473758417
tRp21
sa(dp22
g3
F1
sg4
I2
sg5
I4
sg6
F1
sS'v'
g7
(F-0.64256410360265659
F0.061179916768489537
F0.13399474960606594
tRp23
sg9
I1
sg10
I4
sg11
g7
(F4.7784720718784408
F1.3110309491467793
F1.6641047115651224
tRp24
sa(dp25
g3
F0
sg4
I4
sg5
I5
sg6
F0.20000000000000001
sS'v'
g7
(F0.044179661013095804
F-0.047404390272485691
F-0.076828949901294699
tRp26
sg9
I4
sg10
I5
sg11
g7
(F0.11499788759742885
F0.94994168908249932
F1.078882361653871
tRp27
sa(dp28
g3
F1
sg4
I2
sg5
I6
sg6
F1
sS'v'
g7
(F-0.019440016645118741
F-0.22617608383065962
F-0.57388438341349346
tRp29
sg9
I1
sg10
I6
sg11
g7
(F1.8736822203109147
F2.7887709856164133
F4.739609340717025
tRp30
sa(dp31
g3
F0
sg4
I4
sg5
I7
sg6
F0.20000000000000001
sS'v'
g7
(F-0.070347524580426035
F-0.26854477017246736
F-0.015983163527626087
tRp32
sg9
I4
sg10
I7
sg11
g7
(F2.067606120160622
F3.5290564388245071
F4.7836694184766806
tRp33
sa(dp34
g3
F1
sg4
I2
sg5
I8
sg6
F1
sS'v'
g7
(F0.41126621128372354
F-0.15149739285486588
F0.8350320083478413
tRp35
sg9
I1
sg10
I8
sg11
g7
(F3.0444834779719385
F4.6772760248010679
F4.4890710650267938
tRp36
sa(dp37
g3
F0
sg4
I4
sg5
I9
sg6
F0.20000000000000001
sS'v'
g7
(F0.0049218734895971738
F0.51171657235203294
F-0.086539195815001649
tRp38
sg9
I4
sg10
I9
sg11
g7
(F3.0517338055079799
F0.43107694288933596
F4.3615916579086447
tRp39
sa(dp40
g3
F1
sg4
I2
sg5
I10
sg6
F1
sS'v'
g7
(F0.67808633967566168
F-0.29768760287600032
F1.0877954250734643
tRp41
sg9
I1
sg10
I10
sg11
g7
(F3.4875840427883276
F1.1555290067908219
F4.5377436922270791
tRp42
sa(dp43
g3
F0
sg4
I4
sg5
I11
sg6
F0.20000000000000001
sS'v'
g7
(F0.0086520802001209315
F0.0054866172808277274
F0.026488225964524614
tRp44
sg9
I4
sg10
I11
sg11
g7
(F3.2542538599672115
F1.0075653513929981
F3.8234065081099953
tRp45
sa(dp46
g3
F1
sg4
I2
sg5
I12
sg6
F1
sS'v'
g7
(F-0.52786095238136577
F-1.3800395875841045
F0.26238040187900141
tRp47
sg9
I1
sg10
I12
sg11
g7
(F1.654950932304911
F1.5307865765092561
F2.3140337094469419
tRp48
sa(dp49
g3
F0
sg4
I4
sg5
I13
sg6
F0.20000000000000001
sS'v'
g7
(F0.52124179235797452
F-0.19343626304533418
F0.26456913419652972
tRp50
sg9
I4
sg10
I13
sg11
g7
(F2.3019746267579113
F1.290671820954852
F2.6424465519239067
tRp51
sa(dp52
g3
F1
sg4
I2
sg5
I14
sg6
F1
sS'v'
g7
(F-1.7600433028275855
F1.5775929328265943
F0.29729546736541823
tRp53
sg9
I1
sg10
I14
sg11
g7
(F1.1740403262065855
F3.4028726575827544
F1.0230183827614148
tRp54
sa(dp55
g3
F0
sg4
I4
sg5
I15
sg6
F0.20000000000000001
sS'v'
g7
(F-0.43022520472740894
F-0.28355557055098202
F0.32108560798178459
tRp56
sg9
I4
sg10
I15
sg11
g7
(F1.717813521325833
F3.761266161492093
F0.61718965622344624
tRp57
sa(dp58
g3
F1
sg4
I2
sg5
I16
sg6
F1
sS'v'
g7
(F0.96416263574123617
F0.012240084964488418
F-0.53090342488289644
tRp59
sg9
I1
sg10
I16
sg11
g7
(F0.65032901530185871
F1.4392403301688497
F2.6407834105600179
tRp60
sa(dp61
g3
F0
sg4
I4
sg5
I17
sg6
F0.20000000000000001
sS'v'
g7
(F1.3877595039263371
F-0.74339369347327355
F0.30744030837989544
tRp62
sg9
I4
sg10
I17
sg11
g7
(F1.309423346696369
F1.0861773044958722
F2.7867973012392526
tRp63
sa(dp64
g3
F1
sg4
I2
sg5
I18
sg6
F1
sS'v'
g7
(F-0.031408247223085384
F1.2517456609376085
F0.17489037512306282
tRp65
sg9
I1
sg10
I18
sg11
g7
(F2.1947998939093161
F4.5910748920476001
F3.8495769841177467
tRp66
sa(dp67
g3
F0
sg4
I4
sg5
I19
sg6
F0.20000000000000001
sS'v'
g7
(F0.50749605461997904
F0.078502716300625011
F0.0044648859363834855
tRp68
sg9
I4
sg10
I19
sg11
g7
(F2.9503375445342486
F4.7079462594237729
F3.8562241085632945
tRp69
sa(dp70
g3
F1
sg4
I2
sg5
I20
sg6
F1
sS'v'
g7
(F1.1387688492100974
F-0.14519085446328828
F-0.15038515138096065
tRp71
sg9
I1
sg10
I20
sg11
g7
(F0.44131200713413732
F0.95328212692148329
F0.362236465788844
tRp72
sa(dp73
g3
F0
sg4
I4
sg5
I21
sg6
F0.20000000000000001
sS'v'
g7
(F-0.12235181370958449
F-0.38503966825868385
F-0.070233768023463691
tRp74
sg9
I4
sg10
I21
sg11
g7
(F0.6701183849527006
F1.6733330124755352
F0.4935784833264158
tRp75
sa(dp76
g3
F1
sg4
I2
sg5
I22
sg6
F1
sS'v'
g7
(F0.06143149015601454
F-0.6816149656313043
F-0.92635682752702708
tRp77
sg9
I1
sg10
I22
sg11
g7
(F0.31520115324980935
F1.8634068242384128
F4.7595955258769296
tRp78
sa(dp79
g3
F0
sg4
I4
sg5
I23
sg6
F0.20000000000000001
sS'v'
g7
(F0.24671039416780907
F0.32629204564492642
F-0.94305220091523689
tRp80
sg9
I4
sg10
I23
sg11
g7
(F0.49838695435055119
F2.1056830768295764
F4.0593665246335906
tRp81
sa(dp82
g3
F1
sg4
I2
sg5
I24
sg6
F1
sS'v'
g7
(F-0.73357737043632487
F-0.3695870060314525
F-1.3610273852571924
tRp83
sg9
I1
sg10
I24
sg11
g7
(F2.4153796493744393
F2.3628622984219372
F1.6044054316860263
tRp84
sa(dp85
g3
F0
sg4
I4
sg5
I25
sg6
F0.20000000000000001
sS'v'
g7
(F-0.41689684512478781
F-0.21418965910943119
F-0.032136313482719753
tRp86
sg9
I4
sg10
I25
sg11
g7
(F3.0960175650510511
F2.7125545660429355
F1.6568721118305147
tRp87
sa(dp88
g3
F1
sg4
I2
sg5
I26
sg6
F1
sS'v'
g7
(F0.58531257928165947
F0.48731044734903706
F-0.010018173146636319
tRp89
sg9
I1
sg10
I26
sg11
g7
(F3.0873932315972272
F4.1623894619245521
F2.1869383697271871
tRp90
sa(dp91
g3
F0
sg4
I4
sg5
I27
sg6
F0.20000000000000001
sS'v'
g7
(F0.45561614019343061
F0.42226120273948137
F0.27661848120729871
tRp92
sg9
I4
sg10
I27
sg11
g7
(F3.5993779714593415
F4.6368926082499948
F2.4977799502775286
tRp93
sa(dp94
g3
F1
sg4
I2
sg5
I28
sg6
F1
sS'v'
g7
(F0.017337876601077232
F0.4252442283634349
F1.2824010298423338
tRp95
sg9
I1
sg10
I28
sg11
g7
(F4.7989839558295833
F2.2345749027806816
F2.476023791763081
tRp96
sa(dp97
g3
F0
sg4
I4
sg5
I29
sg6
F0.20000000000000001
sS'v'
g7
(F0.36581000429543703
F-0.27830663279443224
F0.18590045686419959
tRp98
sg9
I4
sg10
I29
sg11
g7
(F4.2330367536758322
F2.6651450302275896
F2.1884159018584959
tRp99
sa(dp100
g3
F1
sg4
I2
sg5
I30
sg6
F1
sS'v'
g7
(F0.10066674045762516
F-1.0417891238012766
F-0.64966464132435031
tRp101
sg9
I1
sg10
I30
sg11
g7
(F2.1912252380953485
F3.22468284569175
F0.86067054076182659
tRp102
sa(dp103
g3
F0
sg4
I4
sg5
I31
sg6
F0.20000000000000001
sS'v'
g7
(F-0.01395386824083786
F0.62526107896090311
F-0.20547348341657251
tRp104
sg9
I4
sg10
I31
sg11
g7
(F2.2074932931793576
F2.4957250041196297
F1.1002208854283546
tRp105
sa(dp106
g3
F1
sg4
I2
sg5
I32
sg6
F1
sS'v'
g7
(F-0.43013207427243261
F1.109471544508571
F0.65366827793088722
tRp107
sg9
I1
sg10
I32
sg11
g7
(F1.0146631145655405
F4.503203659610608
F3.8592597630563064
tRp108
sa(dp109
g3
F0
sg4
I4
sg5
I33
sg6
F0.20000000000000001
sS'v'
g7
(F-0.68714179965513578
F1.1710242352745406
F-0.33911464838944977
tRp110
sg9
I4
sg10
I33
sg11
g7
(F1.3924130191923165
F3.8594438222486387
F4.0456849319966164
tRp111
sa(dp112
g3
F1
sg4
I2
sg5
I34
sg6
F1
sS'v'
g7
(F-0.39983736451641566
F0.005787977540645875
F-0.99913127128574963
tRp113
sg9
I1
sg10
I34
sg11
g7
(F4.2339366132952421
F0.29105380246947282
F1.8550831432704795
tRp114
sa(dp115
g3
F0
sg4
I4
sg5
I35
sg6
F0.20000000000000001
sS'v'
g7
(F0.19200658862679354
F-0.19323096009526639
F-0.12094625996624137
tRp116
sg9
I4
sg10
I35
sg11
g7
(F4.7268183851774186
F4.7950290635509099
F1.5446135529245324
tRp117
sa(dp118
g3
F1
sg4
I2
sg5
I36
sg6
F1
sS'v'
g7
(F-0.55321850318732479
F-0.35077019275012872
F0.83825420852648014
tRp119
sg9
I1
sg10
I36
sg11
g7
(F2.4936048574770213
F1.3339850265325921
F1.2769329576149806
tRp120
sa(dp121
g3
F0
sg4
I4
sg5
I37
sg6
F0.20000000000000001
sS'v'
g7
(F-0.3848062994648318
F0.07615065556795797
F1.4427442299051596
tRp122
sg9
I4
sg10
I37
sg11
g7
(F2.2974599750565643
F1.3728008187984433
F2.0123338534191904
tRp123
sa(dp124
g3
F1
sg4
I2
sg5
I38
sg6
F1
sS'v'
g7
(F0.24479367127223306
F-0.098943008749235811
F-0.019509475661549119
tRp125
sg9
I1
sg10
I38
sg11
g7
(F3.3660441019604015
F0.17440508835628571
F2.4331925911609411
tRp126
sa(dp127
g3
F0
sg4
I1
sg5
I39
sg6
F0.20000000000000001
sS'v'
g7
(F2.2613891345445198
F-0.73454110271808182
F-0.47578030030764334
tRp128
sg9
I2
sg10
I39
sg11
g7
(F0.27453181255136161
F0.028086260928669383
F1.7393795962762102
tRp129
sa(dp130
g3
F1
sg4
I4
sg5
I40
sg6
F1
sS'v'
g7
(F0.060490427716202014
F0.14823278398875367
F0.41977888827455445
tRp131
sg9
I3
sg10
I40
sg11
g7
(F3.7870776874743273
F1.7047762918842173
F1.945026501426504
tRp132
sa(dp133
g3
F0
sg4
I4
sg5
I41
sg6
F0.20000000000000001
sS'v'
g7
(F-0.29767706421226697
F0.71792801647401183
F-0.56639698886411471
tRp134
sg9
I4
sg10
I41
sg11
g7
(F2.5376902844065086
F0.71936703522579748
F4.3755627397476058
tRp135
sa(dp136
g3
F1
sg4
I2
sg5
I42
sg6
F1
sS'v'
g7
(F-0.067063870014341373
F-0.32415569706599001
F0.81734869556919576
tRp137
sg9
I1
sg10
I42
sg11
g7
(F1.3166780137866496
F4.1964794098206752
F2.8459725890498637
tRp138
sa(dp139
g3
F0
sg4
I4
sg5
I43
sg6
F0.20000000000000001
sS'v'
g7
(F0.076759510921081964
F0.22198082305884295
F-0.33697042639594693
tRp140
sg9
I4
sg10
I43
sg11
g7
(F1.4596024508650354
F4.6098025771673319
F2.2185414352190378
tRp141
sa(dp142
g3
F1
sg4
I2
sg5
I44
sg6
F1
sS'v'
g7
(F-0.70563156028846286
F-0.60260351994807393
F0.033445787928113868
tRp143
sg9
I1
sg10
I44
sg11
g7
(F0.18012607911164674
F4.1737165322032981
F2.7608526242817835
tRp144
sa(dp145
g3
F0
sg4
I4
sg5
I45
sg6
F0.20000000000000001
sS'v'
g7
(F-0.45165409916115057
F-0.47001926087706186
F-0.43672002455514514
tRp146
sg9
I4
sg10
I45
sg11
g7
(F0.6220947906098222
F4.6336565781255654
F3.1882075113437529
tRp147
sa(dp148
g3
F1
sg4
I2
sg5
I46
sg6
F1
sS'v'
g7
(F-0.56061602315449643
F-0.53616751980437016
F0.32300819010752463
tRp149
sg9
I1
sg10
I46
sg11
g7
(F1.6449413083878166
F3.4987269325935948
F3.659039026879324
tRp150
sa(dp151
g3
F0
sg4
I4
sg5
I47
sg6
F0.20000000000000001
sS'v'
g7
(F-0.36539472034262244
F-0.1876271040862707
F-0.33495251721591512
tRp152
sg9
I4
sg10
I47
sg11
g7
(F2.1738308540536129
F3.7703072491940297
F4.1438650924662266
tRp153
sa(dp154
g3
F1
sg4
I2
sg5
I48
sg6
F1
sS'v'
g7
(F0.71254990549355368
F-0.61633537725835763
F0.82563642327265008
tRp155
sg9
I1
sg10
I48
sg11
g7
(F1.0959902689885468
F2.3919838912036266
F4.078584491618706
tRp156
sa(dp157
g3
F0
sg4
I4
sg5
I49
sg6
F0.20000000000000001
sS'v'
g7
(F-0.11593027954547476
F-0.12020539943641918
F0.076874678457934498
tRp158
sg9
I4
sg10
I49
sg11
g7
(F1.5792072092154144
F2.8930202515242311
F3.7581578778728462
tRp159
sa(dp160
g3
F1
sg4
I2
sg5
I50
sg6
F1
sS'v'
g7
(F-0.44630826898420128
F0.054472088206996366
F0.14784675497798758
tRp161
sg9
I1
sg10
I50
sg11
g7
(F4.4170772228267232
F4.4095134452642375
F0.43288004100961464
tRp162
sa(dp163
g3
F0
sg4
I4
sg5
I51
sg6
F0.20000000000000001
sS'v'
g7
(F-0.10042147422362259
F-0.16660119785959274
F0.12415382043159708
tRp164
sg9
I4
sg10
I51
sg11
g7
(F4.7505888252026818
F4.9628157432585489
F0.020550507776187169
tRp165
sa(dp166
g3
F1
sg4
I2
sg5
I52
sg6
F1
sS'v'
g7
(F0.29525274924078532
F0.17061366316338117
F-1.2861841987601876
tRp167
sg9
I1
sg10
I52
sg11
g7
(F3.3253002968232455
F4.5601840124565491
F3.4525993967480391
tRp168
sa(dp169
g3
F0
sg4
I4
sg5
I53
sg6
F0.20000000000000001
sS'v'
g7
(F-0.63517734763766365
F-0.084184373925988071
F-1.1811328557044183
tRp170
sg9
I4
sg10
I53
sg11
g7
(F2.9648798294288032
F4.5124150365783011
F2.782385861124975
tRp171
sa(dp172
g3
F1
sg4
I2
sg5
I54
sg6
F1
sS'v'
g7
(F0.95035691936976563
F0.18210936963957214
F-0.18078046311277021
tRp173
sg9
I1
sg10
I54
sg11
g7
(F4.2379215076434873
F2.6342642466703423
F0.40323371236129202
tRp174
sa(dp175
g3
F0
sg4
I4
sg5
I55
sg6
F0.20000000000000001
sS'v'
g7
(F-0.11303480781947101
F-0.078064356644886007
F-0.098523913075421771
tRp176
sg9
I4
sg10
I55
sg11
g7
(F4.750278578952484
F2.9881094552018075
F0.84981671215589016
tRp177
sa(dp178
g3
F1
sg4
I2
sg5
I56
sg6
F1
sS'v'
g7
(F1.2660680187956259
F-0.47686148940623851
F-0.063286295075887983
tRp179
sg9
I1
sg10
I56
sg11
g7
(F2.7446595404941636
F3.5986176874064943
F4.0973658039800931
tRp180
sa(dp181
g3
F0
sg4
I4
sg5
I57
sg6
F0.20000000000000001
sS'v'
g7
(F0.42502500290108797
F-0.30242472702576917
F-0.65970730917654785
tRp182
sg9
I4
sg10
I57
sg11
g7
(F3.1306247957855202
F3.3239857571054805
F3.4982855186653103
tRp183
sa(dp184
g3
F1
sg4
I2
sg5
I58
sg6
F1
sS'v'
g7
(F-0.36658102677369259
F1.0066992983785659
F0.18166836814701653
tRp185
sg9
I1
sg10
I58
sg11
g7
(F1.6648080181056524
F2.9285613318498553
F2.4299651029398763
tRp186
sa(dp187
g3
F0
sg4
I4
sg5
I59
sg6
F0.20000000000000001
sS'v'
g7
(F-0.22538941129674891
F0.33549462717673223
F-0.067220931248643118
tRp188
sg9
I4
sg10
I59
sg11
g7
(F2.086656007486384
F2.3006359421508402
F2.5557785319221522
tRp189
sa(dp190
g3
F1
sg4
I2
sg5
I60
sg6
F1
sS'v'
g7
(F0.3466323221000786
F-0.20708648951895486
F0.35366405774250009
tRp191
sg9
I1
sg10
I60
sg11
g7
(F4.7822635242661722
F3.837023037966429
F3.7309774064094094
tRp192
sa(dp193
g3
F0
sg4
I4
sg5
I61
sg6
F0.20000000000000001
sS'v'
g7
(F0.068837287250178153
F0.0014662743861299935
F-0.067187796013716689
tRp194
sg9
I4
sg10
I61
sg11
g7
(F0.33008221243150593
F3.8486918956856599
F3.1962856464162233
tRp195
sa(dp196
g3
F1
sg4
I2
sg5
I62
sg6
F1
sS'v'
g7
(F-0.69639873109918671
F0.15446173906112612
F0.94600030993705575
tRp197
sg9
I1
sg10
I62
sg11
g7
(F0.049670563517383262
F3.308667770944326
F1.103469023557331
tRp198
sa(dp199
g3
F0
sg4
I4
sg5
I63
sg6
F0.20000000000000001
sS'v'
g7
(F-0.078315359303046395
F0.18680571829365289
F0.34933804816412944
tRp200
sg9
I4
sg10
I63
sg11
g7
(F4.9013411565628138
F3.6624780791240883
F1.7651158061551357
tRp201
sa(dp202
g3
F1
sg4
I2
sg5
I64
sg6
F1
sS'v'
g7
(F-0.87223952556596307
F-0.4231675846838005
F-0.050316171028421189
tRp203
sg9
I1
sg10
I64
sg11
g7
(F0.99217744575024547
F3.4707040156809073
F4.6163375835682547
tRp204
sa(dp205
g3
F0
sg4
I4
sg5
I65
sg6
F0.20000000000000001
sS'v'
g7
(F0.078428701856924826
F0.53235717011234218
F-0.64718423437392303
tRp206
sg9
I4
sg10
I65
sg11
g7
(F1.0633440003207479
F3.9537672909970363
F4.0290797169678019
tRp207
sa(dp208
g3
F1
sg4
I2
sg5
I66
sg6
F1
sS'v'
g7
(F-0.30360293096695234
F0.4815639412457306
F0.66843095176781619
tRp209
sg9
I1
sg10
I66
sg11
g7
(F4.2729866655857105
F1.1837266623938012
F2.4925855867662339
tRp210
sa(dp211
g3
F0
sg4
I4
sg5
I67
sg6
F0.20000000000000001
sS'v'
g7
(F0.055826938109844869
F0.67137352548376783
F-0.27750585137681677
tRp212
sg9
I4
sg10
I67
sg11
g7
(F4.3315265699575045
F1.887726260262544
F2.2015940591591097
tRp213
sa(dp214
g3
F1
sg4
I2
sg5
I68
sg6
F1
sS'v'
g7
(F-0.18071614850690962
F0.70421103999298373
F0.72099630599880871
tRp215
sg9
I1
sg10
I68
sg11
g7
(F4.3282726230823974
F2.0664301398901577
F4.2730070072159183
tRp216
sa(dp217
g3
F0
sg4
I4
sg5
I69
sg6
F0.20000000000000001
sS'v'
g7
(F0.22582999591130143
F0.26532839674292513
F0.13715552718416449
tRp218
sg9
I4
sg10
I69
sg11
g7
(F4.7895868643577257
F2.6084297424599439
F4.553181470773592
tRp219
sa(dp220
g3
F1
sg4
I2
sg5
I70
sg6
F1
sS'v'
g7
(F-0.19359000190045733
F-0.49124090568998618
F1.2607789398229452
tRp221
sg9
I1
sg10
I70
sg11
g7
(F3.1536151850771605
F2.9149737544345813
F0.61957298117959847
tRp222
sa(dp223
g3
F0
sg4
I4
sg5
I71
sg6
F0.20000000000000001
sS'v'
g7
(F0.57217346250064693
F-0.30157526529188333
F-0.097695774623033999
tRp224
sg9
I4
sg10
I71
sg11
g7
(F3.8220776243530556
F2.5626474920783302
F0.50543634239518864
tRp225
sa(dp226
g3
F1
sg4
I2
sg5
I72
sg6
F1
sS'v'
g7
(F-0.068328148722245727
F0.37255739431173585
F1.5638741412183881
tRp227
sg9
I1
sg10
I72
sg11
g7
(F0.49476884056239234
F1.5643492205492413
F3.7515020283648304
tRp228
sa(dp229
g3
F0
sg4
I4
sg5
I73
sg6
F0.20000000000000001
sS'v'
g7
(F-0.18499636701868774
F0.43349029121442856
F1.0952935023754877
tRp230
sg9
I4
sg10
I73
sg11
g7
(F0.6140484498960338
F1.2848488529514264
F3.0452925866635963
tRp231
sa(dp232
g3
F1
sg4
I2
sg5
I74
sg6
F1
sS'v'
g7
(F0.33037260577478034
F0.12837750435430573
F-0.04546536230452064
tRp233
sg9
I1
sg10
I74
sg11
g7
(F1.7908692239041519
F0.85943272531657233
F0.58644459623631229
tRp234
sa(dp235
g3
F0
sg4
I4
sg5
I75
sg6
F0.20000000000000001
sS'v'
g7
(F0.30109207756476125
F-0.027980742094574677
F-0.45244830390348362
tRp236
sg9
I4
sg10
I75
sg11
g7
(F1.3663952819108667
F0.89887944870047454
F1.2242976963889705
tRp237
sa(dp238
g3
F1
sg4
I2
sg5
I76
sg6
F1
sS'v'
g7
(F0.19806282795242783
F-0.18985400917641096
F-0.82485161088124925
tRp239
sg9
I1
sg10
I76
sg11
g7
(F1.7383733937675814
F4.5514873953011383
F0.98646902371638845
tRp240
sa(dp241
g3
F0
sg4
I4
sg5
I77
sg6
F0.20000000000000001
sS'v'
g7
(F-0.30561760894454637
F0.016940793922922231
F-0.64888670262204495
tRp242
sg9
I4
sg10
I77
sg11
g7
(F1.4129111095726634
F4.5695282061865807
F0.29544814586704049
tRp243
sa(dp244
g3
F1
sg4
I2
sg5
I78
sg6
F1
sS'v'
g7
(F-0.54280813453159016
F-0.30098389889223992
F-1.0583518830954115
tRp245
sg9
I1
sg10
I78
sg11
g7
(F3.8719661592281662
F0.86062145572512749
F3.4028584258349208
tRp246
sa(dp247
g3
F0
sg4
I4
sg5
I79
sg6
F0.20000000000000001
sS'v'
g7
(F-0.32947609315246706
F-0.11643808656022682
F-0.83374553616059321
tRp248
sg9
I4
sg10
I79
sg11
g7
(F3.5936743592940479
F0.76227209028350451
F2.6986357196436184
tRp249
sa(dp250
g3
F1
sg4
I2
sg5
I80
sg6
F1
sS'v'
g7
(F-1.0347571649956524
F-0.20832909975815467
F-0.42079787384324613
tRp251
sg9
I1
sg10
I80
sg11
g7
(F0.042771844478970616
F2.4566247587348879
F3.5045219561143925
tRp252
sa(dp253
g3
F0
sg4
I4
sg5
I81
sg6
F0.20000000000000001
sS'v'
g7
(F-0.38604940296185208
F0.083269676558924741
F0.068714753837255504
tRp254
sg9
I4
sg10
I81
sg11
g7
(F0.78127556859398073
F2.2973317621059177
F3.3730721954849896
tRp255
sa(dp256
g3
F1
sg4
I2
sg5
I82
sg6
F1
sS'v'
g7
(F0.21957115099454586
F-1.5008879620491531
F-0.13077809554596037
tRp257
sg9
I1
sg10
I82
sg11
g7
(F4.8348229468745378
F4.2689171912373336
F1.5254525798670791
tRp258
sa(dp259
g3
F0
sg4
I4
sg5
I83
sg6
F0.20000000000000001
sS'v'
g7
(F-0.0055128779726116425
F-0.060605595047838919
F-0.61133273663812571
tRp260
sg9
I4
sg10
I83
sg11
g7
(F4.8417089228842896
F4.3446178825331438
F2.289050573397807
tRp261
sa(dp262
g3
F1
sg4
I2
sg5
I84
sg6
F1
sS'v'
g7
(F-0.48285181405032618
F0.99140065043163905
F0.14864702990540288
tRp263
sg9
I1
sg10
I84
sg11
g7
(F2.2730175113810409
F2.1892873716471617
F0.4898976717969673
tRp264
sa(dp265
g3
F0
sg4
I4
sg5
I85
sg6
F0.20000000000000001
sS'v'
g7
(F-0.41064244365062147
F0.16058165109973188
F-0.21090438335069181
tRp266
sg9
I4
sg10
I85
sg11
g7
(F2.9174674275837815
F1.937275351956943
F0.82088467588947112
tRp267
sa(dp268
g3
F1
sg4
I2
sg5
I86
sg6
F1
sS'v'
g7
(F0.28701457997165081
F0.024494260630490483
F0.56069167269916431
tRp269
sg9
I1
sg10
I86
sg11
g7
(F2.6667446043075111
F4.1246020257244878
F1.1787242735381969
tRp270
sa(dp271
g3
F0
sg4
I4
sg5
I87
sg6
F0.20000000000000001
sS'v'
g7
(F-0.04264923403649102
F0.0061099233091409435
F0.067346142963309541
tRp272
sg9
I4
sg10
I87
sg11
g7
(F2.2583100560604974
F4.1831143020401118
F1.8236711781851447
tRp273
sa(dp274
g3
F1
sg4
I2
sg5
I88
sg6
F1
sS'v'
g7
(F-0.064055078269765892
F-0.41381461737419301
F-0.19324642671999304
tRp275
sg9
I1
sg10
I88
sg11
g7
(F3.7572435494418297
F3.0836106472861773
F4.5869401109786168
tRp276
sa(dp277
g3
F0
sg4
I4
sg5
I89
sg6
F0.20000000000000001
sS'v'
g7
(F-0.95336704440390385
F0.081494572939502546
F0.38108863305443447
tRp278
sg9
I4
sg10
I89
sg11
g7
(F4.4685247869004492
F3.0228097615970624
F4.3026202405871938
tRp279
sa(dp280
g3
F1
sg4
I2
sg5
I90
sg6
F1
sS'v'
g7
(F1.3035798118433064
F0.26795221867355373
F0.66006286232081446
tRp281
sg9
I1
sg10
I90
sg11
g7
(F1.4324386332881056
F2.301293742160079
F1.1750297535254819
tRp282
sa(dp283
g3
F0
sg4
I4
sg5
I91
sg6
F0.20000000000000001
sS'v'
g7
(F-0.4504986885406726
F0.37164533613688527
F0.46552687736420112
tRp284
sg9
I4
sg10
I91
sg11
g7
(F1.8955161433186343
F1.9192713273330271
F0.69650443767955428
tRp285
sa(dp286
g3
F1
sg4
I2
sg5
I92
sg6
F1
sS'v'
g7
(F-1.8456439015714809
F0.86464660769035251
F0.37271065528616226
tRp287
sg9
I1
sg10
I92
sg11
g7
(F2.2209667037130094
F0.23509013484586649
F2.9230953001214801
tRp288
sa(dp289
g3
F0
sg4
I4
sg5
I93
sg6
F0.20000000000000001
sS'v'
g7
(F0.18551393609719305
F0.21994996716453871
F0.24014183859566557
tRp290
sg9
I4
sg10
I93
sg11
g7
(F2.5995854387011867
F0.68398998614813655
F3.4132051056683297
tRp291
sa(dp292
g3
F1
sg4
I2
sg5
I94
sg6
F1
sS'v'
g7
(F-0.53749100175890119
F-0.19865342302775674
F-0.66988779523232833
tRp293
sg9
I1
sg10
I94
sg11
g7
(F3.6012355118094805
F2.3898852447525294
F2.3872918113268979
tRp294
sa(dp295
g3
F0
sg4
I4
sg5
I95
sg6
F0.20000000000000001
sS'v'
g7
(F-0.56957190055672291
F-0.23534604761097516
F-0.65395731242389632
tRp296
sg9
I4
sg10
I95
sg11
g7
(F4.0880864237928014
F2.5910511340793723
F2.9462725363952131
tRp297
sa(dp298
g3
F1
sg4
I2
sg5
I96
sg6
F1
sS'v'
g7
(F-1.7894704590021622
F0.090464155149706682
F0.43285022338340917
tRp299
sg9
I1
sg10
I96
sg11
g7
(F1.6763152006792257
F1.4085814713540998
F3.5410808632983075
tRp300
sa(dp301
g3
F0
sg4
I4
sg5
I97
sg6
F0.20000000000000001
sS'v'
g7
(F0.06618069951997925
F0.28551054764321798
F-0.002068148689168223
tRp302
sg9
I4
sg10
I97
sg11
g7
(F1.5032200606494099
F0.66183070288613177
F3.5464900912084172
tRp303
sa(dp304
g3
F1
sg4
I2
sg5
I98
sg6
F1
sS'v'
g7
(F-1.0873050429963114
F0.046955080462881583
F0.57109492888918856
tRp305
sg9
I1
sg10
I98
sg11
g7
(F3.9878080868430494
F3.5272026902960407
F1.0716189877409252
tRp306
sa(dp307
g3
F0
sg4
I4
sg5
I99
sg6
F0.20000000000000001
sS'v'
g7
(F-0.31858420789331898
F-0.34138024078857837
F-0.34320013249325693
tRp308
sg9
I4
sg10
I99
sg11
g7
(F4.4096268561167324
F3.9792043572211373
F1.5260302671328643
tRp309
sa(dp310
g3
F1
sg4
I2
sg5
I100
sg6
F1
sS'v'
g7
(F-0.94020871133388972
F-0.55539842737709566
F-0.9838630904579847
tRp311
sg9
I1
sg10
I100
sg11
g7
(F3.5743021480418977
F3.4818376142326799
F2.8642655739080265
tRp312
sa(dp313
g3
F0
sg4
I4
sg5
I101
sg6
F0.20000000000000001
sS'v'
g7
(F-0.41833323404116329
F-0.021336431663342911
F-0.04379904400852018
tRp314
sg9
I4
sg10
I101
sg11
g7
(F4.3360428141056344
F3.5206890043306012
F2.9440190102623616
tRp315
sa(dp316
g3
F1
sg4
I2
sg5
I102
sg6
F1
sS'v'
g7
(F-1.9936803502896021
F0.066567020836555968
F-0.50719409551310624
tRp317
sg9
I1
sg10
I102
sg11
g7
(F3.209306020966709
F2.2805080808284792
F4.5296945835019864
tRp318
sa(dp319
g3
F0
sg4
I4
sg5
I103
sg6
F0.20000000000000001
sS'v'
g7
(F0.10337153573060988
F0.062481505113461969
F-0.25102294623555799
tRp320
sg9
I4
sg10
I103
sg11
g7
(F3.4932318570788645
F2.4521231531547434
F3.8402214186744392
tRp321
sa(dp322
g3
F1
sg4
I2
sg5
I104
sg6
F1
sS'v'
g7
(F-0.079462011445865691
F-0.1208073628449251
F1.90282891102263
tRp323
sg9
I1
sg10
I104
sg11
g7
(F3.8761067959068858
F0.25521951140235921
F4.308874214488247
tRp324
sa(dp325
g3
F0
sg4
I4
sg5
I105
sg6
F0.20000000000000001
sS'v'
g7
(F0.10259932858473302
F-0.047412588652190446
F-0.04514395784611247
tRp326
sg9
I4
sg10
I105
sg11
g7
(F4.5214531659224955
F4.9569959031019879
F4.0249202186288482
tRp327
sa(dp328
g3
F1
sg4
I2
sg5
I106
sg6
F1
sS'v'
g7
(F0.56570044857026802
F-0.70496060165518759
F0.59723176190567717
tRp329
sg9
I1
sg10
I106
sg11
g7
(F4.7564822865661309
F0.22554235173300966
F4.8000286133914898
tRp330
sa(dp331
g3
F0
sg4
I4
sg5
I107
sg6
F0.20000000000000001
sS'v'
g7
(F0.88549906679496637
F-0.25756312387621821
F0.82162390207457048
tRp332
sg9
I4
sg10
I107
sg11
g7
(F0.30332374065161583
F0.066483806714934507
F0.30742385091338387
tRp333
sa(dp334
g3
F1
sg4
I2
sg5
I108
sg6
F1
sS'v'
g7
(F0.87272218749787733
F0.18308333929009107
F0.23017719720313495
tRp335
sg9
I1
sg10
I108
sg11
g7
(F4.837958052786389
F0.23860833969443671
F3.6908259835511088
tRp336
sa(dp337
g3
F0
sg4
I4
sg5
I109
sg6
F0.20000000000000001
sS'v'
g7
(F-0.054097195115101103
F0.23136560843075568
F-0.073699328663820521
tRp338
sg9
I4
sg10
I109
sg11
g7
(F0.0046288288501593368
F4.5257823709991412
F3.917889961223934
tRp339
sa(dp340
g3
F1
sg4
I2
sg5
I110
sg6
F1
sS'v'
g7
(F0.67575001471933227
F-0.21093327143518728
F0.7138531043871108
tRp341
sg9
I1
sg10
I110
sg11
g7
(F4.1033655137798482
F3.9775697099425855
F2.1807405779358713
tRp342
sa(dp343
g3
F0
sg4
I4
sg5
I111
sg6
F0.20000000000000001
sS'v'
g7
(F0.30185253513550664
F0.039917255510933877
F0.67293055848552463
tRp344
sg9
I4
sg10
I111
sg11
g7
(F3.7896313972354538
F3.9360812232317559
F1.4813219887648177
tRp345
sa(dp346
g3
F1
sg4
I2
sg5
I112
sg6
F1
sS'v'
g7
(F-1.384113338168961
F0.94740001597211365
F-0.60455901211618979
tRp347
sg9
I1
sg10
I112
sg11
g7
(F1.2824833430083309
F0.26894082783341455
F2.4933912323153873
tRp348
sa(dp349
g3
F0
sg4
I4
sg5
I113
sg6
F0.20000000000000001
sS'v'
g7
(F-0.43596305716316247
F-0.11254648966142131
F-0.1082067668785561
tRp350
sg9
I4
sg10
I113
sg11
g7
(F2.0045702930922897
F0.4553519242026563
F2.6726144325154446
tRp351
sa(dp352
g3
F1
sg4
I2
sg5
I114
sg6
F1
sS'v'
g7
(F0.17017010635382279
F0.52554124660172497
F0.22172311679115603
tRp353
sg9
I1
sg10
I114
sg11
g7
(F3.1082223525899977
F3.9038205037354148
F0.22829214774457959
tRp354
sa(dp355
g3
F0
sg4
I4
sg5
I115
sg6
F0.20000000000000001
sS'v'
g7
(F-0.0676885125270799
F-0.11622123348165955
F-0.83028337791896412
tRp356
sg9
I4
sg10
I115
sg11
g7
(F3.0467604572665521
F3.798290377279264
F4.4743859359329887
tRp357
sa(dp358
g3
F1
sg4
I2
sg5
I116
sg6
F1
sS'v'
g7
(F-0.96531573847473329
F-0.79149638984518911
F0.50621181258735726
tRp359
sg9
I1
sg10
I116
sg11
g7
(F3.8738821550571041
F2.5652020939540501
F1.4311421444175945
tRp360
sa(dp361
g3
F0
sg4
I4
sg5
I117
sg6
F0.20000000000000001
sS'v'
g7
(F-0.54839013128332714
F0.36738902281225566
F0.23926404380016725
tRp362
sg9
I4
sg10
I117
sg11
g7
(F4.4734201259434592
F2.163547037275102
F1.1695621648685031
tRp363
sa(dp364
g3
F1
sg4
I2
sg5
I118
sg6
F1
sS'v'
g7
(F-0.38487096708706642
F-0.48692232076839481
F-0.42141701135972837
tRp365
sg9
I1
sg10
I118
sg11
g7
(F3.0276801630224064
F1.2207815125990085
F2.5886520218941325
tRp366
sa(dp367
g3
F0
sg4
I4
sg5
I119
sg6
F0.20000000000000001
sS'v'
g7
(F-0.73215118276774838
F-0.88652169824281579
F-0.94271046465630115
tRp368
sg9
I4
sg10
I119
sg11
g7
(F3.4066263903673089
F1.6796267086670433
F3.0765793550298999
tRp369
sa(dp370
g3
F1
sg4
I2
sg5
I120
sg6
F1
sS'v'
g7
(F0.77583203738020656
F-0.30695897324710808
F-0.24133778664943534
tRp371
sg9
I1
sg10
I120
sg11
g7
(F4.8425122967073708
F3.1998304120336587
F4.5035384129122145
tRp372
sa(dp373
g3
F0
sg4
I4
sg5
I121
sg6
F0.20000000000000001
sS'v'
g7
(F1.0709623419039072
F0.36404184953858282
F-0.21123732272712056
tRp374
sg9
I4
sg10
I121
sg11
g7
(F0.55260319716698336
F3.4412047299058264
F4.3634796126752988
tRp375
sa(dp376
g3
F1
sg4
I2
sg5
I122
sg6
F1
sS'v'
g7
(F1.0770990550693342
F-0.35342664859598827
F0.31725492059027283
tRp377
sg9
I1
sg10
I122
sg11
g7
(F3.6491555209184696
F4.5795041163437302
F1.1274821176862533
tRp378
sa(dp379
g3
F0
sg4
I4
sg5
I123
sg6
F0.20000000000000001
sS'v'
g7
(F1.2697086136351423
F1.0162426520677219
F1.1226864593732448
tRp380
sg9
I4
sg10
I123
sg11
g7
(F4.1380330924648856
F4.9707893565236638
F1.5597515564947961
tRp381
sa(dp382
g3
F1
sg4
I2
sg5
I124
sg6
F1
sS'v'
g7
(F-0.17650731469179584
F-0.028556836462486343
F0.50165138351668193
tRp383
sg9
I1
sg10
I124
sg11
g7
(F0.16811686225522796
F2.118282263060141
F1.1382700815443121
tRp384
sa(dp385
g3
F0
sg4
I4
sg5
I125
sg6
F0.20000000000000001
sS'v'
g7
(F0.53088900616959822
F0.38222472325253132
F0.21567179247453006
tRp386
sg9
I4
sg10
I125
sg11
g7
(F0.75704906386169524
F2.5422964075565218
F1.3775217181206052
tRp387
sa(dp388
g3
F1
sg4
I2
sg5
I126
sg6
F1
sS'v'
g7
(F1.1157395651043787
F1.6620619267304497
F0.069838638601054354
tRp389
sg9
I1
sg10
I126
sg11
g7
(F1.3102608055281451
F4.9647400108094786
F0.061974474833507126
tRp390
sa(dp391
g3
F0
sg4
I4
sg5
I127
sg6
F0.20000000000000001
sS'v'
g7
(F0.069676078331752003
F0.42960958994153464
F0.030781873366554528
tRp392
sg9
I4
sg10
I127
sg11
g7
(F1.1877872738728539
F4.2095912571353828
F0.0078674580146533436
tRp393
sa(dp394
g3
F1
sg4
I2
sg5
I128
sg6
F1
sS'v'
g7
(F0.16285750222271075
F0.19571674641972786
F0.89529866714994155
tRp395
sg9
I1
sg10
I128
sg11
g7
(F2.8756679588649359
F0.53280402422220763
F3.8773325591206542
tRp396
sa(dp397
g3
F0
sg4
I4
sg5
I129
sg6
F0.20000000000000001
sS'v'
g7
(F0.11267627676283511
F0.33475219744852303
F-0.75278467916620762
tRp398
sg9
I4
sg10
I129
sg11
g7
(F2.9791609004952093
F0.84027326820571879
F3.1859012916046385
tRp399
sa(dp400
g3
F1
sg4
I2
sg5
I130
sg6
F1
sS'v'
g7
(F-0.77349047144677907
F-1.0477292915165202
F0.85477179070239695
tRp401
sg9
I1
sg10
I130
sg11
g7
(F1.9536925831291809
F3.9688267700698407
F4.8275019655009652
tRp402
sa(dp403
g3
F0
sg4
I4
sg5
I131
sg6
F0.20000000000000001
sS'v'
g7
(F0.03614291379689491
F-0.92167229788173133
F0.28420779043166761
tRp404
sg9
I4
sg10
I131
sg11
g7
(F1.9249239138286633
F4.702450121253154
F4.6012811361149879
tRp405
sa(dp406
g3
F1
sg4
I2
sg5
I132
sg6
F1
sS'v'
g7
(F-0.41054111306602947
F-0.037996801348455456
F0.40686901442539675
tRp407
sg9
I1
sg10
I132
sg11
g7
(F2.5408135143075063
F2.500051777666251
F2.6373785166929973
tRp408
sa(dp409
g3
F0
sg4
I4
sg5
I133
sg6
F0.20000000000000001
sS'v'
g7
(F-0.58692052903543557
F-0.53936274721108468
F0.064725938357953622
tRp410
sg9
I4
sg10
I133
sg11
g7
(F3.1043226691500663
F3.0179001588329104
F2.5752343983394885
tRp411
sa(dp412
g3
F1
sg4
I2
sg5
I134
sg6
F1
sS'v'
g7
(F0.46934553186957989
F-0.41404694347223581
F-0.34069641504558368
tRp413
sg9
I1
sg10
I134
sg11
g7
(F0.57036804882967462
F2.7981311212549103
F0.30470116347065901
tRp414
sa(dp415
g3
F0
sg4
I4
sg5
I135
sg6
F0.20000000000000001
sS'v'
g7
(F-0.21817292237454355
F-0.94568964198524141
F-0.10790165966728391
tRp416
sg9
I4
sg10
I135
sg11
g7
(F0.74201749506631043
F3.5421606808893435
F0.38959373367745698
tRp417
sa(dp418
g3
F1
sg4
I2
sg5
I136
sg6
F1
sS'v'
g7
(F0.60214175072109299
F-1.0174426324161552
F0.13402733200493655
tRp419
sg9
I1
sg10
I136
sg11
g7
(F3.4054528535401518
F1.941886727945523
F0.51620378895258634
tRp420
sa(dp421
g3
F0
sg4
I4
sg5
I137
sg6
F0.20000000000000001
sS'v'
g7
(F-0.36421052305372886
F0.24123903871198255
F-0.11177457632529095
tRp422
sg9
I4
sg10
I137
sg11
g7
(F4.0249177661977145
F1.5315770016028079
F0.70631479283060439
tRp423
sa(dp424
g3
F1
sg4
I2
sg5
I138
sg6
F1
sS'v'
g7
(F-0.43112480353327054
F1.975696841636954
F0.25865602426440648
tRp425
sg9
I1
sg10
I138
sg11
g7
(F0.16934877303287799
F0.4350135398738908
F2.4871813714678277
tRp426
sa(dp427
g3
F0
sg4
I4
sg5
I139
sg6
F0.20000000000000001
sS'v'
g7
(F0.2362914714964495
F0.075232034554018445
F-0.058387530788231973
tRp428
sg9
I4
sg10
I139
sg11
g7
(F0.87907603074501228
F0.66098117737675488
F2.3118080418741807
tRp429
sa(dp430
g3
F1
sg4
I2
sg5
I140
sg6
F1
sS'v'
g7
(F-1.4093082628247751
F-0.08558964658942049
F0.44586294766935669
tRp431
sg9
I1
sg10
I140
sg11
g7
(F0.87887428576792448
F0.53553578750073216
F3.4542274278556668
tRp432
sa(dp433
g3
F0
sg4
I4
sg5
I141
sg6
F0.20000000000000001
sS'v'
g7
(F-0.0039492617780083035
F0.1868912659142099
F0.051058348824624816
tRp434
sg9
I4
sg10
I141
sg11
g7
(F0.89449195749494947
F4.7964593211216702
F3.2523131016625131
tRp435
sa(dp436
g3
F1
sg4
I2
sg5
I142
sg6
F1
sS'v'
g7
(F-0.5346302131384324
F-0.68464573456064026
F-0.294245817117885
tRp437
sg9
I1
sg10
I142
sg11
g7
(F0.90760951718825944
F1.2850758581559092
F1.605525070951437
tRp438
sa(dp439
g3
F0
sg4
I4
sg5
I143
sg6
F0.20000000000000001
sS'v'
g7
(F-0.22431702878406948
F-0.076934388785147356
F-0.28630886170774811
tRp440
sg9
I4
sg10
I143
sg11
g7
(F1.3702625985143326
F1.4437527638920746
F2.1960360892101516
tRp441
sa(dp442
g3
F1
sg4
I2
sg5
I144
sg6
F1
sS'v'
g7
(F-0.62428130490589751
F0.71134303775138208
F-0.11126695785320073
tRp443
sg9
I1
sg10
I144
sg11
g7
(F4.377788410277403
F1.5173289817872622
F0.3070773346458508
tRp444
sa(dp445
g3
F0
sg4
I4
sg5
I145
sg6
F0.20000000000000001
sS'v'
g7
(F0.090315043657161559
F0.043341022933557523
F-0.93838106059363491
tRp446
sg9
I4
sg10
I145
sg11
g7
(F4.4508545320261446
F1.5523924698856506
F4.5479140541593992
tRp447
sa(dp448
g3
F1
sg4
I2
sg5
I146
sg6
F1
sS'v'
g7
(F0.29526312048613856
F0.73649696907097306
F0.3912800735354558
tRp449
sg9
I1
sg10
I146
sg11
g7
(F2.9686197755517094
F1.7316238726167283
F3.5104882170724472
tRp450
sa(dp451
g3
F0
sg4
I4
sg5
I147
sg6
F0.20000000000000001
sS'v'
g7
(F0.48226153686337347
F-0.009479752190393681
F0.35791754486377897
tRp452
sg9
I4
sg10
I147
sg11
g7
(F2.3525166774710065
F1.7437345309361238
F3.0532381745286528
tRp453
sa(dp454
g3
F1
sg4
I2
sg5
I148
sg6
F1
sS'v'
g7
(F0.7805693669948941
F-0.044624123295927159
F0.49471009349952133
tRp455
sg9
I1
sg10
I148
sg11
g7
(F0.93470245602884505
F4.3436863315131564
F1.7839861548534579
tRp456
sa(dp457
g3
F0
sg4
I4
sg5
I149
sg6
F0.20000000000000001
sS'v'
g7
(F-0.057385390371430728
F0.58328519566244719
F0.027226231217056755
tRp458
sg9
I4
sg10
I149
sg11
g7
(F0.85994338953659344
F0.10356365297482398
F1.8194552457965543
tRp459
sa(dp460
g3
F1
sg4
I2
sg5
I150
sg6
F1
sS'v'
g7
(F-0.0095799507189514715
F-0.19385503263645212
F-1.4266811618504243
tRp461
sg9
I1
sg10
I150
sg11
g7
(F2.1190656156589602
F3.6800520188504389
F1.9468477643831079
tRp462
sa(dp463
g3
F0
sg4
I4
sg5
I151
sg6
F0.20000000000000001
sS'v'
g7
(F0.096560820120139695
F-0.63978860484571243
F-0.46630226212102577
tRp464
sg9
I4
sg10
I151
sg11
g7
(F2.2115450032945549
F3.0673059970297061
F1.5002551650204312
tRp465
sa(dp466
g3
F1
sg4
I2
sg5
I152
sg6
F1
sS'v'
g7
(F-0.75497971832860433
F0.050388032641255166
F0.91008981184240412
tRp467
sg9
I1
sg10
I152
sg11
g7
(F4.6321447799711928
F0.42975998826478251
F0.85142856839884284
tRp468
sa(dp469
g3
F0
sg4
I4
sg5
I153
sg6
F0.20000000000000001
sS'v'
g7
(F0.024425218287483303
F0.0062583555145773167
F0.088103093431434784
tRp470
sg9
I4
sg10
I153
sg11
g7
(F4.8362051672602
F0.48204539407224595
F1.5874855057565398
tRp471
sa(dp472
g3
F1
sg4
I2
sg5
I154
sg6
F1
sS'v'
g7
(F0.52255339796819777
F0.47243287232004177
F0.24325568059251604
tRp473
sg9
I1
sg10
I154
sg11
g7
(F2.2830773223261813
F1.5147626944485169
F4.443953687695342
tRp474
sa(dp475
g3
F0
sg4
I4
sg5
I155
sg6
F0.20000000000000001
sS'v'
g7
(F0.7344394987121724
F0.35026687723180161
F0.13492246807701141
tRp476
sg9
I4
sg10
I155
sg11
g7
(F1.5993044292788916
F1.1886595962309054
F4.3183390843197493
tRp477
sa(dp478
g3
F1
sg4
I2
sg5
I156
sg6
F1
sS'v'
g7
(F-0.29443174678961098
F0.6240906388183417
F0.27188027709508883
tRp479
sg9
I1
sg10
I156
sg11
g7
(F0.83894029126485914
F0.18995449475388684
F1.0110597354656237
tRp480
sa(dp481
g3
F0
sg4
I4
sg5
I157
sg6
F0.20000000000000001
sS'v'
g7
(F0.54025171633730118
F0.020880009162069692
F-0.099473842777631064
tRp482
sg9
I4
sg10
I157
sg11
g7
(F1.5902217006186501
F0.21899052043641498
F0.87273005221634858
tRp483
sa(dp484
g3
F1
sg4
I2
sg5
I158
sg6
F1
sS'v'
g7
(F0.10393973559271152
F0.55564935552187367
F-0.79441302453659424
tRp485
sg9
I1
sg10
I158
sg11
g7
(F0.72680855820415702
F2.2713677379898844
F1.9905815935366376
tRp486
sa(dp487
g3
F0
sg4
I4
sg5
I159
sg6
F0.20000000000000001
sS'v'
g7
(F-0.25013945621638739
F0.82001409607078779
F-0.32030153108624199
tRp488
sg9
I4
sg10
I159
sg11
g7
(F0.51811743773981211
F2.9555047513746544
F1.7233543179203972
tRp489
sa(dp490
g3
F1
sg4
I2
sg5
I160
sg6
F1
sS'v'
g7
(F1.0536491361230873
F-0.043517171743882935
F0.13767468759683815
tRp491
sg9
I1
sg10
I160
sg11
g7
(F1.8673778212052239
F0.52669420099643827
F4.4256478870496032
tRp492
sa(dp493
g3
F0
sg4
I4
sg5
I161
sg6
F0.20000000000000001
sS'v'
g7
(F0.022323015940264847
F-0.14758377608682138
F-0.17278843199091987
tRp494
sg9
I4
sg10
I161
sg11
g7
(F1.9421947189097815
F0.032058516110167225
F3.8465373190426271
tRp495
sa(dp496
g3
F1
sg4
I2
sg5
I162
sg6
F1
sS'v'
g7
(F-0.60922465814633464
F0.73129655481701639
F0.83043796420312854
tRp497
sg9
I1
sg10
I162
sg11
g7
(F3.6695337926521892
F0.30275537168463107
F0.35544140579971772
tRp498
sa(dp499
g3
F0
sg4
I4
sg5
I163
sg6
F0.20000000000000001
sS'v'
g7
(F-0.53537517289727821
F-0.17874899136173061
F0.24040729719878093
tRp500
sg9
I4
sg10
I163
sg11
g7
(F4.3391924905628905
F0.52633842683521903
F0.054734825143136268
tRp501
sa(dp502
g3
F1
sg4
I2
sg5
I164
sg6
F1
sS'v'
g7
(F-0.39188317174671383
F-0.21964954489619626
F-0.19400086772859659
tRp503
sg9
I1
sg10
I164
sg11
g7
(F2.6227156495808801
F0.21045934773924557
F0.27701439334605438
tRp504
sa(dp505
g3
F0
sg4
I4
sg5
I165
sg6
F0.20000000000000001
sS'v'
g7
(F-0.52787040813197517
F0.56245755867852487
F0.047232772564937547
tRp506
sg9
I4
sg10
I165
sg11
g7
(F2.1009289737303081
F0.76643455553403572
F0.32370280589617245
tRp507
sa(dp508
g3
F1
sg4
I2
sg5
I166
sg6
F1
sS'v'
g7
(F0.74665056154191856
F0.53480085586339077
F0.068994665554856643
tRp509
sg9
I1
sg10
I166
sg11
g7
(F2.7878657950209433
F0.22716003813357796
F1.2786897066958187
tRp510
sa(dp511
g3
F0
sg4
I4
sg5
I167
sg6
F0.20000000000000001
sS'v'
g7
(F0.99754744656021965
F-0.2421185571195785
F-0.12406634972164453
tRp512
sg9
I4
sg10
I167
sg11
g7
(F3.5242236401857312
F0.048435808414227233
F1.187107867402347
tRp513
sa(dp514
g3
F1
sg4
I2
sg5
I168
sg6
F1
sS'v'
g7
(F0.65299404221666391
F-0.81289655378167858
F0.011700848842002124
tRp515
sg9
I1
sg10
I168
sg11
g7
(F3.468698216950846
F1.0287291974909785
F1.1353855711960077
tRp516
sa(dp517
g3
F0
sg4
I4
sg5
I169
sg6
F0.20000000000000001
sS'v'
g7
(F0.09608818712396125
F-0.015271401694391593
F0.025039172364576392
tRp518
sg9
I4
sg10
I169
sg11
g7
(F4.2009337677552239
F0.91235419275890095
F1.3261954169932682
tRp519
sa(dp520
g3
F1
sg4
I2
sg5
I170
sg6
F1
sS'v'
g7
(F0.72976419748059851
F0.25044298031269097
F0.79461317150233879
tRp521
sg9
I1
sg10
I170
sg11
g7
(F3.9901976764572318
F4.10788838128697
F4.5578359204271752
tRp522
sa(dp523
g3
F0
sg4
I4
sg5
I171
sg6
F0.20000000000000001
sS'v'
g7
(F0.085371998508336364
F-0.20256380753972886
F0.34884824050415281
tRp524
sg9
I4
sg10
I171
sg11
g7
(F3.8314193719058371
F4.4846247642532484
F3.9090338173865877
tRp525
sa(dp526
g3
F1
sg4
I2
sg5
I172
sg6
F1
sS'v'
g7
(F0.28766913829552582
F-0.36116550705801204
F-0.30295989178153859
tRp527
sg9
I1
sg10
I172
sg11
g7
(F0.2190181915295927
F4.2813579299187801
F4.5998054767908441
tRp528
sa(dp529
g3
F0
sg4
I4
sg5
I173
sg6
F0.20000000000000001
sS'v'
g7
(F0.042147445277068624
F-1.3588952960689062
F-0.46471521874121974
tRp530
sg9
I4
sg10
I173
sg11
g7
(F0.24137838338530393
F3.5604326322600852
F4.3532633345325555
tRp531
sa(dp532
g3
F1
sg4
I2
sg5
I174
sg6
F1
sS'v'
g7
(F0.010871466304181787
F0.20627367133832797
F1.4302775830539627
tRp533
sg9
I1
sg10
I174
sg11
g7
(F0.66095946832672992
F3.3618746058179165
F3.3784638035953245
tRp534
sa(dp535
g3
F0
sg4
I4
sg5
I175
sg6
F0.20000000000000001
sS'v'
g7
(F-0.037604609386209381
F0.026212047709324404
F0.007603660635152127
tRp536
sg9
I4
sg10
I175
sg11
g7
(F1.2808530583912356
F2.9297818219095153
F3.2531211776329561
tRp537
sa(dp538
g3
F1
sg4
I2
sg5
I176
sg6
F1
sS'v'
g7
(F0.91248528894811065
F0.043742903384191373
F1.0366677943629325
tRp539
sg9
I1
sg10
I176
sg11
g7
(F4.6893743579802578
F3.2275853429851558
F2.7230241825797492
tRp540
sa(dp541
g3
F0
sg4
I4
sg5
I177
sg6
F0.20000000000000001
sS'v'
g7
(F-0.43185091117399321
F1.3036490717717757
F0.74261975291913707
tRp542
sg9
I4
sg10
I177
sg11
g7
(F4.902289697925128
F2.5848475876553536
F2.3568905631954222
tRp543
sa(dp544
g3
F1
sg4
I2
sg5
I178
sg6
F1
sS'v'
g7
(F1.1985925568163527
F0.44531690735582719
F0.82256662708048256
tRp545
sg9
I1
sg10
I178
sg11
g7
(F0.49239054722423092
F4.1766903354876348
F0.65163843174348279
tRp546
sa(dp547
g3
F0
sg4
I4
sg5
I179
sg6
F0.20000000000000001
sS'v'
g7
(F0.093719322918934742
F-0.52974012235606371
F-0.019558155878135509
tRp548
sg9
I4
sg10
I179
sg11
g7
(F0.62548475396226733
F3.4243871906679022
F0.62386318581996159
tRp549
sa(dp550
g3
F1
sg4
I2
sg5
I180
sg6
F1
sS'v'
g7
(F-0.2598837388590548
F-0.17955998634773823
F-0.27056515758802147
tRp551
sg9
I1
sg10
I180
sg11
g7
(F4.6356356614710021
F1.0940891114660967
F4.2385374129070206
tRp552
sa(dp553
g3
F0
sg4
I4
sg5
I181
sg6
F0.20000000000000001
sS'v'
g7
(F-0.010908790696079716
F-0.0023513896955398603
F0.0070793593633138247
tRp554
sg9
I4
sg10
I181
sg11
g7
(F0.26782814428964907
F1.2303581930822411
F3.8282703267242084
tRp555
sa(dp556
g3
F1
sg4
I2
sg5
I182
sg6
F1
sS'v'
g7
(F0.54751230839747089
F-1.2588442947892227
F-0.13234964396814369
tRp557
sg9
I1
sg10
I182
sg11
g7
(F1.6870943165106622
F0.54302903145886583
F1.5576834969545492
tRp558
sa(dp559
g3
F0
sg4
I4
sg5
I183
sg6
F0.20000000000000001
sS'v'
g7
(F0.88429963222140884
F-0.53283167522321673
F-0.11427321518838927
tRp560
sg9
I4
sg10
I183
sg11
g7
(F2.3368630165708084
F0.15151315567936033
F1.4737174341188901
tRp561
sa(dp562
g3
F1
sg4
I2
sg5
I184
sg6
F1
sS'v'
g7
(F0.094502053354424603
F-0.86488220093769475
F-0.50095856845605247
tRp563
sg9
I1
sg10
I184
sg11
g7
(F1.0422973059038612
F0.95113869303589793
F4.4646243586945138
tRp564
sa(dp565
g3
F0
sg4
I4
sg5
I185
sg6
F0.20000000000000001
sS'v'
g7
(F0.0071559978363056843
F0.1364952822676162
F-0.049475878951237319
tRp566
sg9
I4
sg10
I185
sg11
g7
(F1.0799806876508382
F1.6699208874988547
F4.2040850912945649
tRp567
sa(dp568
g3
F1
sg4
I2
sg5
I186
sg6
F1
sS'v'
g7
(F0.18192305663334515
F0.13989228482421195
F0.41918042555054696
tRp569
sg9
I1
sg10
I186
sg11
g7
(F1.2226183479863455
F2.2594610138212849
F3.0869603645179731
tRp570
sa(dp571
g3
F0
sg4
I4
sg5
I187
sg6
F0.20000000000000001
sS'v'
g7
(F0.96439674587498447
F-0.32833153008543814
F0.16134757748025647
tRp572
sg9
I4
sg10
I187
sg11
g7
(F1.9362552849245429
F2.0165013518018764
F3.2063547854011962
tRp573
sa(dp574
g3
F1
sg4
I2
sg5
I188
sg6
F1
sS'v'
g7
(F0.54890209993548145
F-0.41404086476060264
F0.36753244030017551
tRp575
sg9
I1
sg10
I188
sg11
g7
(F0.73153268019246509
F3.3121998222152493
F2.1001657204867481
tRp576
sa(dp577
g3
F0
sg4
I4
sg5
I189
sg6
F0.20000000000000001
sS'v'
g7
(F0.59981731939219596
F0.17017724548156912
F0.29081989574419498
tRp578
sg9
I4
sg10
I189
sg11
g7
(F1.3977290050329041
F3.5012097954954
F2.4231693075315257
tRp579
sa(dp580
g3
F1
sg4
I2
sg5
I190
sg6
F1
sS'v'
g7
(F-0.27317808965051871
F0.31537708732319503
F-1.043728722551567
tRp581
sg9
I1
sg10
I190
sg11
g7
(F1.3789488031001418
F1.742025454965286
F0.29621361951045871
tRp582
sa(dp583
g3
F0
sg4
I4
sg5
I191
sg6
F0.20000000000000001
sS'v'
g7
(F0.3719997904231433
F0.02000796256389728
F-0.48399246871542778
tRp584
sg9
I4
sg10
I191
sg11
g7
(F1.8444687312448618
F1.7670633865309815
F4.6905462372715929
tRp585
sa(dp586
g3
F1
sg4
I2
sg5
I192
sg6
F1
sS'v'
g7
(F0.32489896208788249
F0.42588160376428574
F0.03321195400426373
tRp587
sg9
I1
sg10
I192
sg11
g7
(F2.319392671528608
F2.6237103207717305
F3.7351839791289616
tRp588
sa(dp589
g3
F0
sg4
I4
sg5
I193
sg6
F0.20000000000000001
sS'v'
g7
(F0.45113974608455298
F0.22510815402749715
F-0.12125852418767785
tRp590
sg9
I4
sg10
I193
sg11
g7
(F2.9845314162211203
F2.9555989568083256
F3.5564062428256245
tRp591
sa(dp592
g3
F1
sg4
I2
sg5
I194
sg6
F1
sS'v'
g7
(F1.218136740446214
F-0.44301457655410725
F-0.11017023707910896
tRp593
sg9
I1
sg10
I194
sg11
g7
(F2.4627760313115483
F3.7372270492699742
F3.0450248883514517
tRp594
sa(dp595
g3
F0
sg4
I4
sg5
I195
sg6
F0.20000000000000001
sS'v'
g7
(F-0.24956594659047437
F-0.74378399081373614
F0.34968927037105496
tRp596
sg9
I4
sg10
I195
sg11
g7
(F2.2408857807681994
F3.0759252237344099
F3.3559352544290801
tRp597
sa(dp598
g3
F1
sg4
I2
sg5
I196
sg6
F1
sS'v'
g7
(F0.93231665500849514
F1.755459743178696
F0.33095653923623691
tRp599
sg9
I1
sg10
I196
sg11
g7
(F4.2046896132106877
F4.917426913882049
F2.9305774956109696
tRp600
sa(dp601
g3
F0
sg4
I4
sg5
I197
sg6
F0.20000000000000001
sS'v'
g7
(F-0.28355559331136415
F-0.042937085900446106
F-0.23268014790202363
tRp602
sg9
I4
sg10
I197
sg11
g7
(F4.7934115322404018
F0.0065734664633536116
F3.4136711337695336
tRp603
sa(dp604
g3
F1
sg4
I2
sg5
I198
sg6
F1
sS'v'
g7
(F0.58184980469962766
F0.34372944586431342
F0.052698980841132385
tRp605
sg9
I1
sg10
I198
sg11
g7
(F2.2385674918327676
F4.7384702133675276
F1.9603863652285591
tRp606
sa(dp607
g3
F0
sg4
I4
sg5
I199
sg6
F0.20000000000000001
sS'v'
g7
(F0.12378860580975196
F-0.11577850803692689
F0.19033188686285357
tRp608
sg9
I4
sg10
I199
sg11
g7
(F2.6102314392826793
F4.3908558505965427
F2.5318404173547795
tRp609
sa.