(lp1
(lp2
(I2993
I2994
tp3
a(I2975
I2976
tp4
a(I2974
I2975
tp5
a(I2973
I2974
tp6
a(I2972
I2973
tp7
a(I2971
I2972
tp8
a(I2969
I2970
tp9
a(I2968
I2969
tp10
a(I2967
I2968
tp11
a(I2966
I2967
tp12
a(I2965
I2966
tp13
a(I2963
I2964
tp14
a(I2962
I2963
tp15
a(I2961
I2962
tp16
a(I2960
I2961
tp17
a(I2959
I2960
tp18
a(I2951
I2952
tp19
a(I2950
I2951
tp20
a(I2949
I2950
tp21
a(I2948
I2949
tp22
a(I2947
I2948
tp23
a(I2941
I2942
tp24
a(I2929
I2930
tp25
a(I2924
I2925
tp26
a(I2923
I2924
tp27
a(I2917
I2918
tp28
a(I2915
I2916
tp29
a(I2911
I2912
tp30
a(I2899
I2900
tp31
a(I2879
I2880
tp32
a(I2878
I2879
tp33
a(I2877
I2878
tp34
a(I2876
I2877
tp35
a(I2875
I2876
tp36
a(I2869
I2870
tp37
a(I2861
I2862
tp38
a(I2851
I2852
tp39
a(I2849
I2850
tp40
a(I2848
I2849
tp41
a(I2847
I2848
tp42
a(I2846
I2847
tp43
a(I2815
I2816
tp44
a(I2811
I2812
tp45
a(I2810
I2811
tp46
a(I2791
I2792
tp47
a(I2789
I2790
tp48
a(I2788
I2789
tp49
a(I2785
I2786
tp50
a(I2783
I2784
tp51
a(I2782
I2783
tp52
a(I2781
I2782
tp53
a(I2780
I2781
tp54
a(I2779
I2780
tp55
a(I2773
I2774
tp56
a(I2771
I2772
tp57
a(I2755
I2756
tp58
a(I2753
I2754
tp59
a(I2752
I2753
tp60
a(I2751
I2752
tp61
a(I2750
I2751
tp62
a(I2749
I2750
tp63
a(I2741
I2742
tp64
a(I2740
I2741
tp65
a(I2739
I2740
tp66
a(I2738
I2739
tp67
a(I2737
I2738
tp68
a(I2729
I2730
tp69
a(I2728
I2729
tp70
a(I2727
I2728
tp71
a(I2726
I2727
tp72
a(I2719
I2720
tp73
a(I2713
I2714
tp74
a(I2701
I2702
tp75
a(I2687
I2688
tp76
a(I2686
I2687
tp77
a(I2685
I2686
tp78
a(I2684
I2685
tp79
a(I2683
I2684
tp80
a(I2675
I2676
tp81
a(I2674
I2675
tp82
a(I2673
I2674
tp83
a(I2672
I2673
tp84
a(I2671
I2672
tp85
a(I2669
I2670
tp86
a(I2668
I2669
tp87
a(I2667
I2668
tp88
a(I2666
I2667
tp89
a(I2665
I2666
tp90
a(I2651
I2652
tp91
a(I2650
I2651
tp92
a(I2649
I2650
tp93
a(I2648
I2649
tp94
a(I2647
I2648
tp95
a(I2641
I2642
tp96
a(I2587
I2588
tp97
a(I2579
I2580
tp98
a(I2578
I2579
tp99
a(I2577
I2578
tp100
a(I2575
I2576
tp101
a(I2549
I2550
tp102
a(I2548
I2549
tp103
a(I2547
I2548
tp104
a(I2546
I2547
tp105
a(I2545
I2546
tp106
a(I2539
I2540
tp107
a(I2537
I2538
tp108
a(I2536
I2537
tp109
a(I2535
I2536
tp110
a(I2534
I2535
tp111
a(I2533
I2534
tp112
a(I2527
I2528
tp113
a(I2519
I2520
tp114
a(I2518
I2519
tp115
a(I2517
I2518
tp116
a(I2516
I2517
tp117
a(I2515
I2516
tp118
a(I2485
I2486
tp119
a(I2471
I2472
tp120
a(I2470
I2471
tp121
a(I2469
I2470
tp122
a(I2468
I2469
tp123
a(I2467
I2468
tp124
a(I2455
I2456
tp125
a(I2443
I2444
tp126
a(I2441
I2442
tp127
a(I2440
I2441
tp128
a(I2439
I2440
tp129
a(I2438
I2439
tp130
a(I2437
I2438
tp131
a(I2425
I2426
tp132
a(I2417
I2418
tp133
a(I2416
I2417
tp134
a(I2415
I2416
tp135
a(I2414
I2415
tp136
a(I2413
I2414
tp137
a(I2411
I2412
tp138
a(I2410
I2411
tp139
a(I2409
I2410
tp140
a(I2408
I2409
tp141
a(I2407
I2408
tp142
a(I2383
I2384
tp143
a(I2375
I2376
tp144
a(I2371
I2372
tp145
a(I2353
I2354
tp146
a(I2341
I2342
tp147
a(I2329
I2330
tp148
a(I2317
I2318
tp149
a(I2309
I2310
tp150
a(I2307
I2308
tp151
a(I2306
I2307
tp152
a(I2305
I2306
tp153
a(I2303
I2304
tp154
a(I2302
I2303
tp155
a(I2301
I2302
tp156
a(I2300
I2301
tp157
a(I2299
I2300
tp158
a(I2293
I2294
tp159
a(I2288
I2289
tp160
a(I2287
I2288
tp161
a(I2273
I2274
tp162
a(I2272
I2273
tp163
a(I2269
I2270
tp164
a(I2263
I2264
tp165
a(I2257
I2258
tp166
a(I2249
I2250
tp167
a(I2248
I2249
tp168
a(I2247
I2248
tp169
a(I2246
I2247
tp170
a(I2245
I2246
tp171
a(I2242
I2243
tp172
a(I2241
I2242
tp173
a(I2240
I2241
tp174
a(I2239
I2240
tp175
a(I2231
I2232
tp176
a(I2230
I2231
tp177
a(I2229
I2230
tp178
a(I2228
I2229
tp179
a(I2227
I2228
tp180
a(I2225
I2226
tp181
a(I2224
I2225
tp182
a(I2223
I2224
tp183
a(I2197
I2198
tp184
a(I2191
I2192
tp185
a(I2185
I2186
tp186
a(I2180
I2181
tp187
a(I2179
I2180
tp188
a(I2173
I2174
tp189
a(I2167
I2168
tp190
a(I2155
I2156
tp191
a(I2152
I2153
tp192
a(I2151
I2152
tp193
a(I2150
I2151
tp194
a(I2149
I2150
tp195
a(I2122
I2123
tp196
a(I2121
I2122
tp197
a(I2120
I2121
tp198
a(I2119
I2120
tp199
a(I2117
I2118
tp200
a(I2116
I2117
tp201
a(I2115
I2116
tp202
a(I2114
I2115
tp203
a(I2113
I2114
tp204
a(I2111
I2112
tp205
a(I2110
I2111
tp206
a(I2101
I2102
tp207
a(I2095
I2096
tp208
a(I2093
I2094
tp209
a(I2083
I2084
tp210
a(I2081
I2082
tp211
a(I2080
I2081
tp212
a(I2079
I2080
tp213
a(I2078
I2079
tp214
a(I2077
I2078
tp215
a(I2075
I2076
tp216
a(I2074
I2075
tp217
a(I2073
I2074
tp218
a(I2072
I2073
tp219
a(I2071
I2072
tp220
a(I2063
I2064
tp221
a(I2062
I2063
tp222
a(I2061
I2062
tp223
a(I2060
I2061
tp224
a(I2059
I2060
tp225
a(I2057
I2058
tp226
a(I2056
I2057
tp227
a(I2055
I2056
tp228
a(I2053
I2054
tp229
a(I2051
I2052
tp230
a(I2050
I2051
tp231
a(I2049
I2050
tp232
a(I2048
I2049
tp233
a(I2047
I2048
tp234
a(I2029
I2030
tp235
a(I2017
I2018
tp236
a(I2015
I2016
tp237
a(I2014
I2015
tp238
a(I2013
I2014
tp239
a(I2012
I2013
tp240
a(I2011
I2012
tp241
a(I1993
I1994
tp242
a(I1981
I1982
tp243
a(I1967
I1968
tp244
a(I1966
I1967
tp245
a(I1965
I1966
tp246
a(I1964
I1965
tp247
a(I1963
I1964
tp248
a(I1921
I1922
tp249
a(I1911
I1912
tp250
a(I1910
I1911
tp251
a(I1909
I1910
tp252
a(I1897
I1898
tp253
a(I1895
I1896
tp254
a(I1894
I1895
tp255
a(I1893
I1894
tp256
a(I1892
I1893
tp257
a(I1891
I1892
tp258
a(I1885
I1886
tp259
a(I1843
I1844
tp260
a(I1837
I1838
tp261
a(I1831
I1832
tp262
a(I1829
I1830
tp263
a(I1825
I1826
tp264
a(I1783
I1784
tp265
a(I1781
I1782
tp266
a(I1780
I1781
tp267
a(I1779
I1780
tp268
a(I1778
I1779
tp269
a(I1777
I1778
tp270
a(I1771
I1772
tp271
a(I1759
I1760
tp272
a(I1751
I1752
tp273
a(I1750
I1751
tp274
a(I1749
I1750
tp275
a(I202
I203
tp276
a(I1745
I1746
tp277
a(I201
I202
tp278
a(I1744
I1745
tp279
a(I200
I201
tp280
a(I1743
I1744
tp281
a(I199
I200
tp282
a(I1742
I1743
tp283
a(I1736
I1737
tp284
a(I1735
I1736
tp285
a(I181
I182
tp286
a(I1724
I1725
tp287
a(I1700
I1701
tp288
a(I1681
I1682
tp289
a(I1675
I1676
tp290
a(I121
I122
tp291
a(I1664
I1665
tp292
a(I1658
I1659
tp293
a(I1657
I1658
tp294
a(I1640
I1641
tp295
a(I1639
I1640
tp296
a(I94
I95
tp297
a(I1637
I1638
tp298
a(I93
I94
tp299
a(I1636
I1637
tp300
a(I92
I93
tp301
a(I1635
I1636
tp302
a(I91
I92
tp303
a(I1634
I1635
tp304
a(I1628
I1629
tp305
a(I1627
I1628
tp306
a(I1597
I1598
tp307
a(I1587
I1588
tp308
a(I1586
I1587
tp309
a(I1585
I1586
tp310
a(I1574
I1575
tp311
a(I1573
I1574
tp312
a(I1567
I1568
tp313
a(I20
I21
tp314
a(I1563
I1564
tp315
a(I19
I20
tp316
a(I1562
I1563
tp317
a(I1561
I1562
tp318
a(I1550
I1551
tp319
a(I1537
I1538
tp320
a(I1529
I1530
tp321
a(I1528
I1529
tp322
a(I1527
I1528
tp323
a(I1526
I1527
tp324
a(I1525
I1526
tp325
a(I1519
I1520
tp326
a(I1514
I1515
tp327
a(I1513
I1514
tp328
a(I1508
I1509
tp329
a(I1507
I1508
tp330
a(I1495
I1496
tp331
a(I1489
I1490
tp332
a(I1480
I1481
tp333
a(I1479
I1480
tp334
a(I1478
I1479
tp335
a(I1477
I1478
tp336
a(I1475
I1476
tp337
a(I1474
I1475
tp338
a(I1473
I1474
tp339
a(I1472
I1473
tp340
a(I1471
I1472
tp341
a(I1468
I1469
tp342
a(I1467
I1468
tp343
a(I1466
I1467
tp344
a(I1465
I1466
tp345
a(I1436
I1437
tp346
a(I1435
I1436
tp347
a(I1411
I1412
tp348
a(I2942
I2943
tp349
a(I1399
I1400
tp350
a(I1393
I1394
tp351
a(I2930
I2931
tp352
a(I1387
I1388
tp353
a(I1379
I1380
tp354
a(I2921
I2922
tp355
a(I1378
I1379
tp356
a(I2920
I2921
tp357
a(I1377
I1378
tp358
a(I2919
I2920
tp359
a(I1376
I1377
tp360
a(I2918
I2919
tp361
a(I1375
I1376
tp362
a(I2914
I2915
tp363
a(I1371
I1372
tp364
a(I2913
I2914
tp365
a(I1370
I1371
tp366
a(I2912
I2913
tp367
a(I1369
I1370
tp368
a(I1363
I1364
tp369
a(I1361
I1362
tp370
a(I2903
I2904
tp371
a(I1360
I1361
tp372
a(I2902
I2903
tp373
a(I1359
I1360
tp374
a(I2901
I2902
tp375
a(I1358
I1359
tp376
a(I2900
I2901
tp377
a(I1357
I1358
tp378
a(I1355
I1356
tp379
a(I1354
I1355
tp380
a(I1353
I1354
tp381
a(I1352
I1353
tp382
a(I1351
I1352
tp383
a(I1349
I1350
tp384
a(I1348
I1349
tp385
a(I1347
I1348
tp386
a(I1346
I1347
tp387
a(I1345
I1346
tp388
a(I1343
I1344
tp389
a(I1342
I1343
tp390
a(I1341
I1342
tp391
a(I1340
I1341
tp392
a(I1339
I1340
tp393
a(I2870
I2871
tp394
a(I1327
I1328
tp395
a(I1321
I1322
tp396
a(I1315
I1316
tp397
a(I2852
I2853
tp398
a(I1309
I1310
tp399
a(I1293
I1294
tp400
a(I1292
I1293
tp401
a(I1291
I1292
tp402
a(I1283
I1284
tp403
a(I1282
I1283
tp404
a(I1281
I1282
tp405
a(I1279
I1280
tp406
a(I1277
I1278
tp407
a(I2819
I2820
tp408
a(I1276
I1277
tp409
a(I2818
I2819
tp410
a(I1275
I1276
tp411
a(I2817
I2818
tp412
a(I1274
I1275
tp413
a(I2816
I2817
tp414
a(I1273
I1274
tp415
a(I1264
I1265
tp416
a(I1263
I1264
tp417
a(I1262
I1263
tp418
a(I1261
I1262
tp419
a(I2792
I2793
tp420
a(I1249
I1250
tp421
a(I2786
I2787
tp422
a(I1243
I1244
tp423
a(I2774
I2775
tp424
a(I1231
I1232
tp425
a(I1219
I1220
tp426
a(I1217
I1218
tp427
a(I2759
I2760
tp428
a(I1216
I1217
tp429
a(I2758
I2759
tp430
a(I1215
I1216
tp431
a(I2757
I2758
tp432
a(I1214
I1215
tp433
a(I2756
I2757
tp434
a(I1213
I1214
tp435
a(I1193
I1194
tp436
a(I1192
I1193
tp437
a(I2721
I2722
tp438
a(I1178
I1179
tp439
a(I2720
I2721
tp440
a(I1177
I1178
tp441
a(I2716
I2717
tp442
a(I1173
I1174
tp443
a(I2715
I2716
tp444
a(I1172
I1173
tp445
a(I2714
I2715
tp446
a(I1171
I1172
tp447
a(I1169
I1170
tp448
a(I2711
I2712
tp449
a(I1168
I1169
tp450
a(I2710
I2711
tp451
a(I1167
I1168
tp452
a(I2709
I2710
tp453
a(I1166
I1167
tp454
a(I2708
I2709
tp455
a(I1165
I1166
tp456
a(I1161
I1162
tp457
a(I2703
I2704
tp458
a(I1160
I1161
tp459
a(I2702
I2703
tp460
a(I1159
I1160
tp461
a(I1139
I1140
tp462
a(I1138
I1139
tp463
a(I1137
I1138
tp464
a(I1136
I1137
tp465
a(I1135
I1136
tp466
a(I1121
I1122
tp467
a(I1120
I1121
tp468
a(I1119
I1120
tp469
a(I1118
I1119
tp470
a(I1117
I1118
tp471
a(I2642
I2643
tp472
a(I1099
I1100
tp473
a(I1091
I1092
tp474
a(I1090
I1091
tp475
a(I1089
I1090
tp476
a(I1088
I1089
tp477
a(I1087
I1088
tp478
a(I1085
I1086
tp479
a(I2627
I2628
tp480
a(I1084
I1085
tp481
a(I2626
I2627
tp482
a(I1083
I1084
tp483
a(I2625
I2626
tp484
a(I1082
I1083
tp485
a(I2624
I2625
tp486
a(I1081
I1082
tp487
a(I1069
I1070
tp488
a(I2606
I2607
tp489
a(I1063
I1064
tp490
a(I1045
I1046
tp491
a(I1039
I1040
tp492
a(I2576
I2577
tp493
a(I1033
I1034
tp494
a(I1021
I1022
tp495
a(I1009
I1010
tp496
a(I2540
I2541
tp497
a(I997
I998
tp498
a(I2530
I2531
tp499
a(I987
I988
tp500
a(I2529
I2530
tp501
a(I986
I987
tp502
a(I2528
I2529
tp503
a(I985
I986
tp504
a(I965
I966
tp505
a(I964
I965
tp506
a(I963
I964
tp507
a(I962
I963
tp508
a(I961
I962
tp509
a(I949
I950
tp510
a(I947
I948
tp511
a(I2489
I2490
tp512
a(I946
I947
tp513
a(I2488
I2489
tp514
a(I945
I946
tp515
a(I2487
I2488
tp516
a(I944
I945
tp517
a(I2486
I2487
tp518
a(I943
I944
tp519
a(I919
I920
tp520
a(I917
I918
tp521
a(I1685
I1686
tp522
a(I2459
I2460
tp523
a(I916
I917
tp524
a(I1682
I1683
tp525
a(I2456
I2457
tp526
a(I913
I914
tp527
a(I1679
I1680
tp528
a(I910
I911
tp529
a(I1678
I1679
tp530
a(I909
I910
tp531
a(I1677
I1678
tp532
a(I908
I909
tp533
a(I1676
I1677
tp534
a(I907
I908
tp535
a(I903
I904
tp536
a(I2445
I2446
tp537
a(I902
I903
tp538
a(I887
I888
tp539
a(I886
I887
tp540
a(I1649
I1650
tp541
a(I106
I107
tp542
a(I875
I876
tp543
a(I76
I77
tp544
a(I845
I846
tp545
a(I64
I65
tp546
a(I1607
I1608
tp547
a(I838
I839
tp548
a(I63
I64
tp549
a(I1606
I1607
tp550
a(I837
I838
tp551
a(I62
I63
tp552
a(I1605
I1606
tp553
a(I836
I837
tp554
a(I61
I62
tp555
a(I1604
I1605
tp556
a(I835
I836
tp557
a(I833
I834
tp558
a(I821
I822
tp559
a(I2357
I2358
tp560
a(I814
I815
tp561
a(I2356
I2357
tp562
a(I813
I814
tp563
a(I2355
I2356
tp564
a(I812
I813
tp565
a(I2354
I2355
tp566
a(I811
I812
tp567
a(I803
I804
tp568
a(I1564
I1565
tp569
a(I21
I22
tp570
a(I2333
I2334
tp571
a(I790
I791
tp572
a(I2332
I2333
tp573
a(I789
I790
tp574
a(I2331
I2332
tp575
a(I788
I789
tp576
a(I2330
I2331
tp577
a(I787
I788
tp578
a(I4
I5
tp579
a(I773
I774
tp580
a(I2297
I2298
tp581
a(I754
I755
tp582
a(I2296
I2297
tp583
a(I753
I754
tp584
a(I2295
I2296
tp585
a(I752
I753
tp586
a(I1520
I1521
tp587
a(I2294
I2295
tp588
a(I751
I752
tp589
a(I749
I750
tp590
a(I1497
I1498
tp591
a(I2271
I2272
tp592
a(I728
I729
tp593
a(I1496
I1497
tp594
a(I2270
I2271
tp595
a(I727
I728
tp596
a(I725
I726
tp597
a(I719
I720
tp598
a(I2261
I2262
tp599
a(I718
I719
tp600
a(I2260
I2261
tp601
a(I717
I718
tp602
a(I2259
I2260
tp603
a(I716
I717
tp604
a(I2258
I2259
tp605
a(I715
I716
tp606
a(I701
I702
tp607
a(I695
I696
tp608
a(I671
I672
tp609
a(I665
I666
tp610
a(I659
I660
tp611
a(I1427
I1428
tp612
a(I658
I659
tp613
a(I657
I658
tp614
a(I656
I657
tp615
a(I2198
I2199
tp616
a(I655
I656
tp617
a(I653
I654
tp618
a(I2195
I2196
tp619
a(I652
I653
tp620
a(I2194
I2195
tp621
a(I651
I652
tp622
a(I2193
I2194
tp623
a(I650
I651
tp624
a(I2192
I2193
tp625
a(I649
I650
tp626
a(I647
I648
tp627
a(I635
I636
tp628
a(I629
I630
tp629
a(I1396
I1397
tp630
a(I2170
I2171
tp631
a(I627
I628
tp632
a(I1395
I1396
tp633
a(I2169
I2170
tp634
a(I626
I627
tp635
a(I1394
I1395
tp636
a(I2168
I2169
tp637
a(I625
I626
tp638
a(I623
I624
tp639
a(I617
I618
tp640
a(I599
I600
tp641
a(I1367
I1368
tp642
a(I2141
I2142
tp643
a(I598
I599
tp644
a(I2909
I2910
tp645
a(I1366
I1367
tp646
a(I2140
I2141
tp647
a(I597
I598
tp648
a(I2908
I2909
tp649
a(I1365
I1366
tp650
a(I596
I597
tp651
a(I2907
I2908
tp652
a(I1364
I1365
tp653
a(I595
I596
tp654
a(I563
I564
tp655
a(I2873
I2874
tp656
a(I1330
I1331
tp657
a(I2104
I2105
tp658
a(I561
I562
tp659
a(I2872
I2873
tp660
a(I1329
I1330
tp661
a(I2103
I2104
tp662
a(I560
I561
tp663
a(I2871
I2872
tp664
a(I1328
I1329
tp665
a(I2102
I2103
tp666
a(I559
I560
tp667
a(I557
I558
tp668
a(I545
I546
tp669
a(I503
I504
tp670
a(I502
I503
tp671
a(I2813
I2814
tp672
a(I1270
I1271
tp673
a(I501
I502
tp674
a(I2812
I2813
tp675
a(I1269
I1270
tp676
a(I500
I501
tp677
a(I499
I500
tp678
a(I880
I881
tp679
a(I491
I492
tp680
a(I105
I106
tp681
a(I1648
I1649
tp682
a(I879
I880
tp683
a(I1259
I1260
tp684
a(I2033
I2034
tp685
a(I490
I491
tp686
a(I104
I105
tp687
a(I1647
I1648
tp688
a(I878
I879
tp689
a(I2032
I2033
tp690
a(I489
I490
tp691
a(I103
I104
tp692
a(I1646
I1647
tp693
a(I877
I878
tp694
a(I2031
I2032
tp695
a(I488
I489
tp696
a(I2030
I2031
tp697
a(I487
I488
tp698
a(I485
I486
tp699
a(I479
I480
tp700
a(I1247
I1248
tp701
a(I478
I479
tp702
a(I477
I478
tp703
a(I2019
I2020
tp704
a(I476
I477
tp705
a(I2787
I2788
tp706
a(I1244
I1245
tp707
a(I2018
I2019
tp708
a(I475
I476
tp709
a(I856
I857
tp710
a(I467
I468
tp711
a(I81
I82
tp712
a(I2393
I2394
tp713
a(I850
I851
tp714
a(I461
I462
tp715
a(I80
I81
tp716
a(I2392
I2393
tp717
a(I849
I850
tp718
a(I2003
I2004
tp719
a(I460
I461
tp720
a(I79
I80
tp721
a(I848
I849
tp722
a(I2002
I2003
tp723
a(I459
I460
tp724
a(I847
I848
tp725
a(I458
I459
tp726
a(I457
I458
tp727
a(I75
I76
tp728
a(I2387
I2388
tp729
a(I844
I845
tp730
a(I455
I456
tp731
a(I443
I444
tp732
a(I2374
I2375
tp733
a(I831
I832
tp734
a(I1985
I1986
tp735
a(I442
I443
tp736
a(I2373
I2374
tp737
a(I830
I831
tp738
a(I1984
I1985
tp739
a(I441
I442
tp740
a(I2372
I2373
tp741
a(I829
I830
tp742
a(I1983
I1984
tp743
a(I440
I441
tp744
a(I1982
I1983
tp745
a(I439
I440
tp746
a(I1589
I1590
tp747
a(I820
I821
tp748
a(I431
I432
tp749
a(I1588
I1589
tp750
a(I819
I820
tp751
a(I41
I42
tp752
a(I430
I431
tp753
a(I40
I41
tp754
a(I429
I430
tp755
a(I1577
I1578
tp756
a(I39
I40
tp757
a(I428
I429
tp758
a(I26
I27
tp759
a(I1569
I1570
tp760
a(I2343
I2344
tp761
a(I800
I801
tp762
a(I2723
I2724
tp763
a(I1180
I1181
tp764
a(I411
I412
tp765
a(I1568
I1569
tp766
a(I2342
I2343
tp767
a(I799
I800
tp768
a(I2722
I2723
tp769
a(I1179
I1180
tp770
a(I410
I411
tp771
a(I1
I2
tp772
a(I1544
I1545
tp773
a(I2318
I2319
tp774
a(I775
I776
tp775
a(I386
I387
tp776
a(I385
I386
tp777
a(I1922
I1923
tp778
a(I379
I380
tp779
a(I1898
I1899
tp780
a(I355
I356
tp781
a(I1886
I1887
tp782
a(I343
I344
tp783
a(I341
I342
tp784
a(I340
I341
tp785
a(I724
I725
tp786
a(I335
I336
tp787
a(I723
I724
tp788
a(I1103
I1104
tp789
a(I334
I335
tp790
a(I722
I723
tp791
a(I2645
I2646
tp792
a(I1102
I1103
tp793
a(I333
I334
tp794
a(I1490
I1491
tp795
a(I721
I722
tp796
a(I2644
I2645
tp797
a(I1101
I1102
tp798
a(I332
I333
tp799
a(I2643
I2644
tp800
a(I1100
I1101
tp801
a(I331
I332
tp802
a(I1469
I1470
tp803
a(I2243
I2244
tp804
a(I700
I701
tp805
a(I311
I312
tp806
a(I310
I311
tp807
a(I309
I310
tp808
a(I308
I309
tp809
a(I1463
I1464
tp810
a(I2237
I2238
tp811
a(I694
I695
tp812
a(I305
I306
tp813
a(I1462
I1463
tp814
a(I2236
I2237
tp815
a(I693
I694
tp816
a(I1073
I1074
tp817
a(I1847
I1848
tp818
a(I304
I305
tp819
a(I1461
I1462
tp820
a(I2235
I2236
tp821
a(I692
I693
tp822
a(I2615
I2616
tp823
a(I1072
I1073
tp824
a(I1846
I1847
tp825
a(I303
I304
tp826
a(I1460
I1461
tp827
a(I691
I692
tp828
a(I2614
I2615
tp829
a(I1071
I1072
tp830
a(I1845
I1846
tp831
a(I302
I303
tp832
a(I2613
I2614
tp833
a(I1070
I1071
tp834
a(I1844
I1845
tp835
a(I301
I302
tp836
a(I2607
I2608
tp837
a(I1064
I1065
tp838
a(I1838
I1839
tp839
a(I295
I296
tp840
a(I293
I294
tp841
a(I1061
I1062
tp842
a(I1835
I1836
tp843
a(I292
I293
tp844
a(I1060
I1061
tp845
a(I1834
I1835
tp846
a(I291
I292
tp847
a(I1059
I1060
tp848
a(I1833
I1834
tp849
a(I290
I291
tp850
a(I1058
I1059
tp851
a(I1832
I1833
tp852
a(I289
I290
tp853
a(I1826
I1827
tp854
a(I283
I284
tp855
a(I1439
I1440
tp856
a(I670
I671
tp857
a(I281
I282
tp858
a(I1438
I1439
tp859
a(I669
I670
tp860
a(I1049
I1050
tp861
a(I280
I281
tp862
a(I1437
I1438
tp863
a(I668
I669
tp864
a(I1048
I1049
tp865
a(I279
I280
tp866
a(I1047
I1048
tp867
a(I278
I279
tp868
a(I1046
I1047
tp869
a(I277
I278
tp870
a(I1040
I1041
tp871
a(I271
I272
tp872
a(I1022
I1023
tp873
a(I253
I254
tp874
a(I251
I252
tp875
a(I250
I251
tp876
a(I249
I250
tp877
a(I248
I249
tp878
a(I247
I248
tp879
a(I1403
I1404
tp880
a(I2177
I2178
tp881
a(I634
I635
tp882
a(I245
I246
tp883
a(I1402
I1403
tp884
a(I2176
I2177
tp885
a(I633
I634
tp886
a(I1013
I1014
tp887
a(I1787
I1788
tp888
a(I244
I245
tp889
a(I1401
I1402
tp890
a(I2175
I2176
tp891
a(I632
I633
tp892
a(I1012
I1013
tp893
a(I1786
I1787
tp894
a(I243
I244
tp895
a(I1400
I1401
tp896
a(I2174
I2175
tp897
a(I631
I632
tp898
a(I1011
I1012
tp899
a(I1785
I1786
tp900
a(I242
I243
tp901
a(I1010
I1011
tp902
a(I1784
I1785
tp903
a(I241
I242
tp904
a(I1397
I1398
tp905
a(I2171
I2172
tp906
a(I628
I629
tp907
a(I239
I240
tp908
a(I2541
I2542
tp909
a(I998
I999
tp910
a(I1772
I1773
tp911
a(I229
I230
tp912
a(I223
I224
tp913
a(I1538
I1539
tp914
a(I2312
I2313
tp915
a(I769
I770
tp916
a(I1149
I1150
tp917
a(I1923
I1924
tp918
a(I380
I381
tp919
a(I182
I183
tp920
a(I1725
I1726
tp921
a(I187
I188
tp922
a(I1723
I1724
tp923
a(I185
I186
tp924
a(I953
I954
tp925
a(I1727
I1728
tp926
a(I184
I185
tp927
a(I1721
I1722
tp928
a(I952
I953
tp929
a(I1726
I1727
tp930
a(I183
I184
tp931
a(I951
I952
tp932
a(I950
I951
tp933
a(I1325
I1326
tp934
a(I2099
I2100
tp935
a(I556
I557
tp936
a(I167
I168
tp937
a(I1517
I1518
tp938
a(I2291
I2292
tp939
a(I748
I749
tp940
a(I359
I360
tp941
a(I2867
I2868
tp942
a(I1324
I1325
tp943
a(I2098
I2099
tp944
a(I555
I556
tp945
a(I166
I167
tp946
a(I1516
I1517
tp947
a(I2290
I2291
tp948
a(I747
I748
tp949
a(I358
I359
tp950
a(I2866
I2867
tp951
a(I1323
I1324
tp952
a(I2097
I2098
tp953
a(I554
I555
tp954
a(I165
I166
tp955
a(I1515
I1516
tp956
a(I2289
I2290
tp957
a(I746
I747
tp958
a(I357
I358
tp959
a(I2865
I2866
tp960
a(I1322
I1323
tp961
a(I2096
I2097
tp962
a(I553
I554
tp963
a(I159
I160
tp964
a(I1702
I1703
tp965
a(I164
I165
tp966
a(I356
I357
tp967
a(I158
I159
tp968
a(I1701
I1702
tp969
a(I163
I164
tp970
a(I1313
I1314
tp971
a(I2087
I2088
tp972
a(I544
I545
tp973
a(I155
I156
tp974
a(I347
I348
tp975
a(I2855
I2856
tp976
a(I1312
I1313
tp977
a(I2086
I2087
tp978
a(I543
I544
tp979
a(I923
I924
tp980
a(I154
I155
tp981
a(I1889
I1890
tp982
a(I346
I347
tp983
a(I2854
I2855
tp984
a(I1311
I1312
tp985
a(I2085
I2086
tp986
a(I542
I543
tp987
a(I922
I923
tp988
a(I153
I154
tp989
a(I1888
I1889
tp990
a(I345
I346
tp991
a(I2853
I2854
tp992
a(I1310
I1311
tp993
a(I2084
I2085
tp994
a(I541
I542
tp995
a(I921
I922
tp996
a(I152
I153
tp997
a(I1887
I1888
tp998
a(I344
I345
tp999
a(I920
I921
tp1000
a(I151
I152
tp1001
a(I1684
I1685
tp1002
a(I2458
I2459
tp1003
a(I915
I916
tp1004
a(I146
I147
tp1005
a(I1683
I1684
tp1006
a(I2457
I2458
tp1007
a(I914
I915
tp1008
a(I145
I146
tp1009
a(I131
I132
tp1010
a(I1385
I1386
tp1011
a(I2159
I2160
tp1012
a(I616
I617
tp1013
a(I227
I228
tp1014
a(I130
I131
tp1015
a(I419
I420
tp1016
a(I1384
I1385
tp1017
a(I2158
I2159
tp1018
a(I615
I616
tp1019
a(I226
I227
tp1020
a(I124
I125
tp1021
a(I1667
I1668
tp1022
a(I129
I130
tp1023
a(I1571
I1572
tp1024
a(I28
I29
tp1025
a(I221
I222
tp1026
a(I2345
I2346
tp1027
a(I802
I803
tp1028
a(I413
I414
tp1029
a(I989
I990
tp1030
a(I220
I221
tp1031
a(I1565
I1566
tp1032
a(I1570
I1571
tp1033
a(I27
I28
tp1034
a(I1741
I1742
tp1035
a(I203
I204
tp1036
a(I299
I300
tp1037
a(I884
I885
tp1038
a(I395
I396
tp1039
a(I1067
I1068
tp1040
a(I1841
I1842
tp1041
a(I298
I299
tp1042
a(I883
I884
tp1043
a(I1643
I1644
tp1044
a(I1543
I1544
tp1045
a(I5
I6
tp1046
a(I1163
I1164
tp1047
a(I394
I395
tp1048
a(I1739
I1740
tp1049
a(I2609
I2610
tp1050
a(I1066
I1067
tp1051
a(I1840
I1841
tp1052
a(I297
I298
tp1053
a(I1642
I1643
tp1054
a(I1162
I1163
tp1055
a(I393
I394
tp1056
a(I1738
I1739
tp1057
a(I2608
I2609
tp1058
a(I1065
I1066
tp1059
a(I1839
I1840
tp1060
a(I296
I297
tp1061
a(I881
I882
tp1062
a(I1641
I1642
tp1063
a(I1253
I1254
tp1064
a(I484
I485
tp1065
a(I1633
I1634
tp1066
a(I95
I96
tp1067
a(I83
I84
tp1068
a(I664
I665
tp1069
a(I275
I276
tp1070
a(I851
I852
tp1071
a(I82
I83
tp1072
a(I855
I856
tp1073
a(I466
I467
tp1074
a(I77
I78
tp1075
a(I2105
I2106
tp1076
a(I562
I563
tp1077
a(I173
I174
tp1078
a(I854
I855
tp1079
a(I465
I466
tp1080
a(I74
I75
tp1081
a(I2386
I2387
tp1082
a(I843
I844
tp1083
a(I1223
I1224
tp1084
a(I1997
I1998
tp1085
a(I454
I455
tp1086
a(I1603
I1604
tp1087
a(I65
I66
tp1088
a(I1699
I1700
tp1089
a(I161
I162
tp1090
a(I1415
I1416
tp1091
a(I2189
I2190
tp1092
a(I646
I647
tp1093
a(I257
I258
tp1094
a(I73
I74
tp1095
a(I2385
I2386
tp1096
a(I842
I843
tp1097
a(I1222
I1223
tp1098
a(I1996
I1997
tp1099
a(I453
I454
tp1100
a(I191
I192
tp1101
a(I2795
I2796
tp1102
a(I1252
I1253
tp1103
a(I483
I484
tp1104
a(I1576
I1577
tp1105
a(I38
I39
tp1106
a(I427
I428
tp1107
a(I1541
I1542
tp1108
a(I3
I4
tp1109
a(I2315
I2316
tp1110
a(I772
I773
tp1111
a(I383
I384
tp1112
a(I190
I191
tp1113
a(I2794
I2795
tp1114
a(I1251
I1252
tp1115
a(I482
I483
tp1116
a(I1631
I1632
tp1117
a(I1391
I1392
tp1118
a(I622
I623
tp1119
a(I233
I234
tp1120
a(I1540
I1541
tp1121
a(I1545
I1546
tp1122
a(I2
I3
tp1123
a(I2314
I2315
tp1124
a(I771
I772
tp1125
a(I1151
I1152
tp1126
a(I1925
I1926
tp1127
a(I382
I383
tp1128
a(I189
I190
tp1129
a(I1828
I1829
tp1130
a(I285
I286
tp1131
a(I2793
I2794
tp1132
a(I1250
I1251
tp1133
a(I481
I482
tp1134
a(I1630
I1631
tp1135
a(I1390
I1391
tp1136
a(I621
I622
tp1137
a(I1001
I1002
tp1138
a(I1775
I1776
tp1139
a(I232
I233
tp1140
a(I1539
I1540
tp1141
a(I2313
I2314
tp1142
a(I770
I771
tp1143
a(I1150
I1151
tp1144
a(I1924
I1925
tp1145
a(I381
I382
tp1146
a(I188
I189
tp1147
a(I673
I674
tp1148
a(I1827
I1828
tp1149
a(I284
I285
tp1150
a(I1629
I1630
tp1151
a(I1389
I1390
tp1152
a(I620
I621
tp1153
a(I2543
I2544
tp1154
a(I1000
I1001
tp1155
a(I1774
I1775
tp1156
a(I231
I232
tp1157
a(I663
I664
tp1158
a(I1043
I1044
tp1159
a(I274
I275
tp1160
a(I1663
I1664
tp1161
a(I125
I126
tp1162
a(I662
I663
tp1163
a(I1042
I1043
tp1164
a(I273
I274
tp1165
a(I661
I662
tp1166
a(I1041
I1042
tp1167
a(I272
I273
tp1168
a(I857
I858
tp1169
a(I2444
I2445
tp1170
a(I901
I902
tp1171
a(I1666
I1667
tp1172
a(I123
I124
tp1173
a(I2344
I2345
tp1174
a(I801
I802
tp1175
a(I1181
I1182
tp1176
a(I412
I413
tp1177
a(I2531
I2532
tp1178
a(I988
I989
tp1179
a(I219
I220
tp1180
a(I418
I419
tp1181
a(I1383
I1384
tp1182
a(I2157
I2158
tp1183
a(I614
I615
tp1184
a(I225
I226
tp1185
a(I128
I129
tp1186
a(I853
I854
tp1187
a(I2776
I2777
tp1188
a(I1233
I1234
tp1189
a(I464
I465
tp1190
a(I406
I407
tp1191
a(I17
I18
tp1192
a(I1382
I1383
tp1193
a(I2156
I2157
tp1194
a(I613
I614
tp1195
a(I224
I225
tp1196
a(I122
I123
tp1197
a(I1665
I1666
tp1198
a(I127
I128
tp1199
a(I407
I408
tp1200
a(I2775
I2776
tp1201
a(I1232
I1233
tp1202
a(I463
I464
tp1203
a(I1280
I1281
tp1204
a(I2054
I2055
tp1205
a(I511
I512
tp1206
a(I1660
I1661
tp1207
a(I2717
I2718
tp1208
a(I1174
I1175
tp1209
a(I405
I406
tp1210
a(I16
I17
tp1211
a(I1659
I1660
tp1212
a(I1553
I1554
tp1213
a(I15
I16
tp1214
a(I1552
I1553
tp1215
a(I14
I15
tp1216
a(I791
I792
tp1217
a(I1551
I1552
tp1218
a(I13
I14
tp1219
a(I160
I161
tp1220
a(I1414
I1415
tp1221
a(I2188
I2189
tp1222
a(I645
I646
tp1223
a(I1025
I1026
tp1224
a(I256
I257
tp1225
a(I2384
I2385
tp1226
a(I841
I842
tp1227
a(I1221
I1222
tp1228
a(I1995
I1996
tp1229
a(I452
I453
tp1230
a(I1737
I1738
tp1231
a(I1413
I1414
tp1232
a(I2187
I2188
tp1233
a(I644
I645
tp1234
a(I1024
I1025
tp1235
a(I255
I256
tp1236
a(I1220
I1221
tp1237
a(I1994
I1995
tp1238
a(I451
I452
tp1239
a(I1388
I1389
tp1240
a(I619
I620
tp1241
a(I2542
I2543
tp1242
a(I999
I1000
tp1243
a(I1773
I1774
tp1244
a(I230
I231
tp1245
a(I815
I816
tp1246
a(I1575
I1576
tp1247
a(I37
I38
tp1248
a(I1412
I1413
tp1249
a(I2186
I2187
tp1250
a(I643
I644
tp1251
a(I1023
I1024
tp1252
a(I254
I255
tp1253
a(I839
I840
tp1254
a(I2321
I2322
tp1255
a(I778
I779
tp1256
a(I389
I390
tp1257
a(I2320
I2321
tp1258
a(I777
I778
tp1259
a(I1157
I1158
tp1260
a(I388
I389
tp1261
a(I885
I886
tp1262
a(I1645
I1646
tp1263
a(I107
I108
tp1264
a(I2319
I2320
tp1265
a(I776
I777
tp1266
a(I1156
I1157
tp1267
a(I387
I388
tp1268
a(I2995
I2996
tp1269
a(I2989
I2990
tp1270
a(I2983
I2984
tp1271
a(I2981
I2982
tp1272
a(I2980
I2981
tp1273
a(I2979
I2980
tp1274
a(I2978
I2979
tp1275
a(I2977
I2978
tp1276
a(I2957
I2958
tp1277
a(I2956
I2957
tp1278
a(I2955
I2956
tp1279
a(I2954
I2955
tp1280
a(I2953
I2954
tp1281
a(I2945
I2946
tp1282
a(I2944
I2945
tp1283
a(I2943
I2944
tp1284
a(I2939
I2940
tp1285
a(I2938
I2939
tp1286
a(I2937
I2938
tp1287
a(I2936
I2937
tp1288
a(I2935
I2936
tp1289
a(I2933
I2934
tp1290
a(I2932
I2933
tp1291
a(I2931
I2932
tp1292
a(I2927
I2928
tp1293
a(I2926
I2927
tp1294
a(I2925
I2926
tp1295
a(I2906
I2907
tp1296
a(I2905
I2906
tp1297
a(I2897
I2898
tp1298
a(I2896
I2897
tp1299
a(I2895
I2896
tp1300
a(I2894
I2895
tp1301
a(I2893
I2894
tp1302
a(I2891
I2892
tp1303
a(I2890
I2891
tp1304
a(I2889
I2890
tp1305
a(I2888
I2889
tp1306
a(I2887
I2888
tp1307
a(I2885
I2886
tp1308
a(I2884
I2885
tp1309
a(I2883
I2884
tp1310
a(I2882
I2883
tp1311
a(I2881
I2882
tp1312
a(I2864
I2865
tp1313
a(I2863
I2864
tp1314
a(I2858
I2859
tp1315
a(I2857
I2858
tp1316
a(I2845
I2846
tp1317
a(I2839
I2840
tp1318
a(I2836
I2837
tp1319
a(I2835
I2836
tp1320
a(I2834
I2835
tp1321
a(I2833
I2834
tp1322
a(I2827
I2828
tp1323
a(I2825
I2826
tp1324
a(I2824
I2825
tp1325
a(I2823
I2824
tp1326
a(I2822
I2823
tp1327
a(I2821
I2822
tp1328
a(I2809
I2810
tp1329
a(I2807
I2808
tp1330
a(I2806
I2807
tp1331
a(I2805
I2806
tp1332
a(I2804
I2805
tp1333
a(I2803
I2804
tp1334
a(I2797
I2798
tp1335
a(I2767
I2768
tp1336
a(I2765
I2766
tp1337
a(I2764
I2765
tp1338
a(I2763
I2764
tp1339
a(I2762
I2763
tp1340
a(I2761
I2762
tp1341
a(I2743
I2744
tp1342
a(I2735
I2736
tp1343
a(I2731
I2732
tp1344
a(I2725
I2726
tp1345
a(I2707
I2708
tp1346
a(I2705
I2706
tp1347
a(I2704
I2705
tp1348
a(I2699
I2700
tp1349
a(I2695
I2696
tp1350
a(I2693
I2694
tp1351
a(I2692
I2693
tp1352
a(I2689
I2690
tp1353
a(I2681
I2682
tp1354
a(I2680
I2681
tp1355
a(I2679
I2680
tp1356
a(I2678
I2679
tp1357
a(I2677
I2678
tp1358
a(I2663
I2664
tp1359
a(I2662
I2663
tp1360
a(I2661
I2662
tp1361
a(I2660
I2661
tp1362
a(I2659
I2660
tp1363
a(I2653
I2654
tp1364
a(I2635
I2636
tp1365
a(I2633
I2634
tp1366
a(I2632
I2633
tp1367
a(I2631
I2632
tp1368
a(I2630
I2631
tp1369
a(I2629
I2630
tp1370
a(I2623
I2624
tp1371
a(I2617
I2618
tp1372
a(I2612
I2613
tp1373
a(I2611
I2612
tp1374
a(I2605
I2606
tp1375
a(I2603
I2604
tp1376
a(I2602
I2603
tp1377
a(I2601
I2602
tp1378
a(I2599
I2600
tp1379
a(I2593
I2594
tp1380
a(I2591
I2592
tp1381
a(I2590
I2591
tp1382
a(I2589
I2590
tp1383
a(I2588
I2589
tp1384
a(I2585
I2586
tp1385
a(I2584
I2585
tp1386
a(I2583
I2584
tp1387
a(I2582
I2583
tp1388
a(I2581
I2582
tp1389
a(I2569
I2570
tp1390
a(I2567
I2568
tp1391
a(I2566
I2567
tp1392
a(I2565
I2566
tp1393
a(I2564
I2565
tp1394
a(I2563
I2564
tp1395
a(I2557
I2558
tp1396
a(I2555
I2556
tp1397
a(I2554
I2555
tp1398
a(I2553
I2554
tp1399
a(I2552
I2553
tp1400
a(I2551
I2552
tp1401
a(I2521
I2522
tp1402
a(I2509
I2510
tp1403
a(I2507
I2508
tp1404
a(I2506
I2507
tp1405
a(I2505
I2506
tp1406
a(I2504
I2505
tp1407
a(I2503
I2504
tp1408
a(I2497
I2498
tp1409
a(I2495
I2496
tp1410
a(I2494
I2495
tp1411
a(I2493
I2494
tp1412
a(I2492
I2493
tp1413
a(I2491
I2492
tp1414
a(I2479
I2480
tp1415
a(I2473
I2474
tp1416
a(I2465
I2466
tp1417
a(I2464
I2465
tp1418
a(I2463
I2464
tp1419
a(I2462
I2463
tp1420
a(I2461
I2462
tp1421
a(I2453
I2454
tp1422
a(I2452
I2453
tp1423
a(I2451
I2452
tp1424
a(I2450
I2451
tp1425
a(I2449
I2450
tp1426
a(I2446
I2447
tp1427
a(I2431
I2432
tp1428
a(I2429
I2430
tp1429
a(I2428
I2429
tp1430
a(I2427
I2428
tp1431
a(I2426
I2427
tp1432
a(I2423
I2424
tp1433
a(I2422
I2423
tp1434
a(I2421
I2422
tp1435
a(I2420
I2421
tp1436
a(I2419
I2420
tp1437
a(I2401
I2402
tp1438
a(I2399
I2400
tp1439
a(I2398
I2399
tp1440
a(I2397
I2398
tp1441
a(I2396
I2397
tp1442
a(I2395
I2396
tp1443
a(I2391
I2392
tp1444
a(I2390
I2391
tp1445
a(I2389
I2390
tp1446
a(I2381
I2382
tp1447
a(I2380
I2381
tp1448
a(I2379
I2380
tp1449
a(I2378
I2379
tp1450
a(I2377
I2378
tp1451
a(I2365
I2366
tp1452
a(I2363
I2364
tp1453
a(I2362
I2363
tp1454
a(I2359
I2360
tp1455
a(I2347
I2348
tp1456
a(I2335
I2336
tp1457
a(I2323
I2324
tp1458
a(I2311
I2312
tp1459
a(I2281
I2282
tp1460
a(I2275
I2276
tp1461
a(I2267
I2268
tp1462
a(I2266
I2267
tp1463
a(I2265
I2266
tp1464
a(I2264
I2265
tp1465
a(I2251
I2252
tp1466
a(I2234
I2235
tp1467
a(I2233
I2234
tp1468
a(I2221
I2222
tp1469
a(I2216
I2217
tp1470
a(I2215
I2216
tp1471
a(I2213
I2214
tp1472
a(I2212
I2213
tp1473
a(I2211
I2212
tp1474
a(I2209
I2210
tp1475
a(I2207
I2208
tp1476
a(I2206
I2207
tp1477
a(I2205
I2206
tp1478
a(I2204
I2205
tp1479
a(I2203
I2204
tp1480
a(I2201
I2202
tp1481
a(I2200
I2201
tp1482
a(I2199
I2200
tp1483
a(I2165
I2166
tp1484
a(I2164
I2165
tp1485
a(I2163
I2164
tp1486
a(I2162
I2163
tp1487
a(I2161
I2162
tp1488
a(I2143
I2144
tp1489
a(I2139
I2140
tp1490
a(I2138
I2139
tp1491
a(I2137
I2138
tp1492
a(I2131
I2132
tp1493
a(I2125
I2126
tp1494
a(I2107
I2108
tp1495
a(I2089
I2090
tp1496
a(I2065
I2066
tp1497
a(I2045
I2046
tp1498
a(I2044
I2045
tp1499
a(I2043
I2044
tp1500
a(I2042
I2043
tp1501
a(I2041
I2042
tp1502
a(I2035
I2036
tp1503
a(I2027
I2028
tp1504
a(I2026
I2027
tp1505
a(I2025
I2026
tp1506
a(I2024
I2025
tp1507
a(I2023
I2024
tp1508
a(I2021
I2022
tp1509
a(I2020
I2021
tp1510
a(I2009
I2010
tp1511
a(I2008
I2009
tp1512
a(I2007
I2008
tp1513
a(I2006
I2007
tp1514
a(I2005
I2006
tp1515
a(I2001
I2002
tp1516
a(I2000
I2001
tp1517
a(I1999
I2000
tp1518
a(I1987
I1988
tp1519
a(I1975
I1976
tp1520
a(I1973
I1974
tp1521
a(I1972
I1973
tp1522
a(I1971
I1972
tp1523
a(I1970
I1971
tp1524
a(I1969
I1970
tp1525
a(I1961
I1962
tp1526
a(I1957
I1958
tp1527
a(I1955
I1956
tp1528
a(I1954
I1955
tp1529
a(I1953
I1954
tp1530
a(I1951
I1952
tp1531
a(I1949
I1950
tp1532
a(I1948
I1949
tp1533
a(I1945
I1946
tp1534
a(I1939
I1940
tp1535
a(I1937
I1938
tp1536
a(I1936
I1937
tp1537
a(I1933
I1934
tp1538
a(I1931
I1932
tp1539
a(I1930
I1931
tp1540
a(I1929
I1930
tp1541
a(I1928
I1929
tp1542
a(I1927
I1928
tp1543
a(I1915
I1916
tp1544
a(I361
I362
tp1545
a(I1904
I1905
tp1546
a(I1879
I1880
tp1547
a(I1873
I1874
tp1548
a(I328
I329
tp1549
a(I1871
I1872
tp1550
a(I327
I328
tp1551
a(I1870
I1871
tp1552
a(I326
I327
tp1553
a(I1869
I1870
tp1554
a(I325
I326
tp1555
a(I1868
I1869
tp1556
a(I313
I314
tp1557
a(I1856
I1857
tp1558
a(I307
I308
tp1559
a(I1850
I1851
tp1560
a(I1849
I1850
tp1561
a(I1819
I1820
tp1562
a(I1817
I1818
tp1563
a(I1816
I1817
tp1564
a(I1815
I1816
tp1565
a(I1814
I1815
tp1566
a(I1813
I1814
tp1567
a(I268
I269
tp1568
a(I1811
I1812
tp1569
a(I267
I268
tp1570
a(I1810
I1811
tp1571
a(I266
I267
tp1572
a(I1809
I1810
tp1573
a(I265
I266
tp1574
a(I1808
I1809
tp1575
a(I259
I260
tp1576
a(I1802
I1803
tp1577
a(I1795
I1796
tp1578
a(I1793
I1794
tp1579
a(I1792
I1793
tp1580
a(I1791
I1792
tp1581
a(I1790
I1791
tp1582
a(I1789
I1790
tp1583
a(I1769
I1770
tp1584
a(I1768
I1769
tp1585
a(I1767
I1768
tp1586
a(I1766
I1767
tp1587
a(I1765
I1766
tp1588
a(I214
I215
tp1589
a(I1757
I1758
tp1590
a(I211
I212
tp1591
a(I1754
I1755
tp1592
a(I1730
I1731
tp1593
a(I1729
I1730
tp1594
a(I177
I178
tp1595
a(I1720
I1721
tp1596
a(I176
I177
tp1597
a(I1719
I1720
tp1598
a(I175
I176
tp1599
a(I1718
I1719
tp1600
a(I169
I170
tp1601
a(I1712
I1713
tp1602
a(I1711
I1712
tp1603
a(I1705
I1706
tp1604
a(I1693
I1694
tp1605
a(I148
I149
tp1606
a(I1691
I1692
tp1607
a(I147
I148
tp1608
a(I1690
I1691
tp1609
a(I1689
I1690
tp1610
a(I1688
I1689
tp1611
a(I1670
I1671
tp1612
a(I1669
I1670
tp1613
a(I109
I110
tp1614
a(I1652
I1653
tp1615
a(I1622
I1623
tp1616
a(I1621
I1622
tp1617
a(I1619
I1620
tp1618
a(I1618
I1619
tp1619
a(I1617
I1618
tp1620
a(I1616
I1617
tp1621
a(I1615
I1616
tp1622
a(I70
I71
tp1623
a(I1613
I1614
tp1624
a(I69
I70
tp1625
a(I1612
I1613
tp1626
a(I68
I69
tp1627
a(I1611
I1612
tp1628
a(I67
I68
tp1629
a(I1610
I1611
tp1630
a(I57
I58
tp1631
a(I1600
I1601
tp1632
a(I56
I57
tp1633
a(I1599
I1600
tp1634
a(I55
I56
tp1635
a(I1598
I1599
tp1636
a(I1580
I1581
tp1637
a(I1579
I1580
tp1638
a(I1559
I1560
tp1639
a(I1558
I1559
tp1640
a(I1557
I1558
tp1641
a(I1556
I1557
tp1642
a(I1555
I1556
tp1643
a(I1531
I1532
tp1644
a(I1523
I1524
tp1645
a(I1522
I1523
tp1646
a(I1521
I1522
tp1647
a(I1501
I1502
tp1648
a(I1493
I1494
tp1649
a(I1492
I1493
tp1650
a(I1491
I1492
tp1651
a(I1487
I1488
tp1652
a(I1486
I1487
tp1653
a(I1485
I1486
tp1654
a(I1484
I1485
tp1655
a(I1483
I1484
tp1656
a(I1459
I1460
tp1657
a(I2996
I2997
tp1658
a(I1453
I1454
tp1659
a(I2990
I2991
tp1660
a(I1447
I1448
tp1661
a(I2985
I2986
tp1662
a(I1442
I1443
tp1663
a(I2984
I2985
tp1664
a(I1441
I1442
tp1665
a(I1433
I1434
tp1666
a(I1432
I1433
tp1667
a(I1431
I1432
tp1668
a(I1430
I1431
tp1669
a(I1429
I1430
tp1670
a(I1426
I1427
tp1671
a(I1425
I1426
tp1672
a(I1424
I1425
tp1673
a(I1423
I1424
tp1674
a(I1421
I1422
tp1675
a(I1420
I1421
tp1676
a(I1419
I1420
tp1677
a(I1418
I1419
tp1678
a(I1417
I1418
tp1679
a(I1405
I1406
tp1680
a(I1381
I1382
tp1681
a(I1333
I1334
tp1682
a(I1331
I1332
tp1683
a(I1303
I1304
tp1684
a(I2840
I2841
tp1685
a(I1297
I1298
tp1686
a(I2828
I2829
tp1687
a(I1285
I1286
tp1688
a(I1271
I1272
tp1689
a(I1268
I1269
tp1690
a(I1267
I1268
tp1691
a(I2801
I2802
tp1692
a(I1258
I1259
tp1693
a(I2800
I2801
tp1694
a(I1257
I1258
tp1695
a(I2799
I2800
tp1696
a(I1256
I1257
tp1697
a(I2798
I2799
tp1698
a(I1255
I1256
tp1699
a(I1246
I1247
tp1700
a(I1245
I1246
tp1701
a(I1237
I1238
tp1702
a(I1235
I1236
tp1703
a(I2777
I2778
tp1704
a(I1234
I1235
tp1705
a(I1229
I1230
tp1706
a(I1228
I1229
tp1707
a(I2770
I2771
tp1708
a(I1227
I1228
tp1709
a(I2769
I2770
tp1710
a(I1226
I1227
tp1711
a(I2768
I2769
tp1712
a(I1225
I1226
tp1713
a(I1211
I1212
tp1714
a(I1210
I1211
tp1715
a(I1209
I1210
tp1716
a(I1208
I1209
tp1717
a(I1207
I1208
tp1718
a(I2744
I2745
tp1719
a(I1201
I1202
tp1720
a(I1199
I1200
tp1721
a(I1198
I1199
tp1722
a(I1197
I1198
tp1723
a(I1196
I1197
tp1724
a(I1195
I1196
tp1725
a(I2732
I2733
tp1726
a(I1189
I1190
tp1727
a(I1187
I1188
tp1728
a(I1183
I1184
tp1729
a(I1175
I1176
tp1730
a(I2698
I2699
tp1731
a(I1155
I1156
tp1732
a(I2697
I2698
tp1733
a(I1154
I1155
tp1734
a(I2696
I2697
tp1735
a(I1153
I1154
tp1736
a(I2691
I2692
tp1737
a(I1148
I1149
tp1738
a(I2690
I2691
tp1739
a(I1147
I1148
tp1740
a(I1141
I1142
tp1741
a(I1129
I1130
tp1742
a(I1127
I1128
tp1743
a(I1126
I1127
tp1744
a(I1125
I1126
tp1745
a(I1124
I1125
tp1746
a(I1123
I1124
tp1747
a(I1115
I1116
tp1748
a(I1883
I1884
tp1749
a(I2657
I2658
tp1750
a(I1114
I1115
tp1751
a(I339
I340
tp1752
a(I1882
I1883
tp1753
a(I2656
I2657
tp1754
a(I1113
I1114
tp1755
a(I338
I339
tp1756
a(I1881
I1882
tp1757
a(I2655
I2656
tp1758
a(I1112
I1113
tp1759
a(I337
I338
tp1760
a(I1880
I1881
tp1761
a(I2654
I2655
tp1762
a(I1111
I1112
tp1763
a(I1109
I1110
tp1764
a(I1874
I1875
tp1765
a(I1105
I1106
tp1766
a(I319
I320
tp1767
a(I1862
I1863
tp1768
a(I2636
I2637
tp1769
a(I1093
I1094
tp1770
a(I1079
I1080
tp1771
a(I2621
I2622
tp1772
a(I1078
I1079
tp1773
a(I2620
I2621
tp1774
a(I1077
I1078
tp1775
a(I2618
I2619
tp1776
a(I1075
I1076
tp1777
a(I2600
I2601
tp1778
a(I1057
I1058
tp1779
a(I1823
I1824
tp1780
a(I2597
I2598
tp1781
a(I1054
I1055
tp1782
a(I1822
I1823
tp1783
a(I2596
I2597
tp1784
a(I1053
I1054
tp1785
a(I1821
I1822
tp1786
a(I2595
I2596
tp1787
a(I1052
I1053
tp1788
a(I1820
I1821
tp1789
a(I2594
I2595
tp1790
a(I1051
I1052
tp1791
a(I1796
I1797
tp1792
a(I2570
I2571
tp1793
a(I1027
I1028
tp1794
a(I1019
I1020
tp1795
a(I2561
I2562
tp1796
a(I1018
I1019
tp1797
a(I2560
I2561
tp1798
a(I1017
I1018
tp1799
a(I2559
I2560
tp1800
a(I1016
I1017
tp1801
a(I2558
I2559
tp1802
a(I1015
I1016
tp1803
a(I1003
I1004
tp1804
a(I995
I996
tp1805
a(I1763
I1764
tp1806
a(I994
I995
tp1807
a(I1762
I1763
tp1808
a(I993
I994
tp1809
a(I218
I219
tp1810
a(I1761
I1762
tp1811
a(I992
I993
tp1812
a(I217
I218
tp1813
a(I1760
I1761
tp1814
a(I991
I992
tp1815
a(I205
I206
tp1816
a(I1748
I1749
tp1817
a(I2522
I2523
tp1818
a(I979
I980
tp1819
a(I973
I974
tp1820
a(I971
I972
tp1821
a(I959
I960
tp1822
a(I1715
I1716
tp1823
a(I172
I173
tp1824
a(I941
I942
tp1825
a(I1703
I1704
tp1826
a(I2477
I2478
tp1827
a(I934
I935
tp1828
a(I2476
I2477
tp1829
a(I933
I934
tp1830
a(I2475
I2476
tp1831
a(I932
I933
tp1832
a(I2474
I2475
tp1833
a(I931
I932
tp1834
a(I929
I930
tp1835
a(I136
I137
tp1836
a(I905
I906
tp1837
a(I899
I900
tp1838
a(I118
I119
tp1839
a(I1661
I1662
tp1840
a(I2435
I2436
tp1841
a(I892
I893
tp1842
a(I874
I875
tp1843
a(I873
I874
tp1844
a(I872
I873
tp1845
a(I871
I872
tp1846
a(I100
I101
tp1847
a(I869
I870
tp1848
a(I99
I100
tp1849
a(I868
I869
tp1850
a(I58
I59
tp1851
a(I1601
I1602
tp1852
a(I832
I833
tp1853
a(I1592
I1593
tp1854
a(I49
I50
tp1855
a(I2361
I2362
tp1856
a(I818
I819
tp1857
a(I2360
I2361
tp1858
a(I817
I818
tp1859
a(I2351
I2352
tp1860
a(I808
I809
tp1861
a(I797
I798
tp1862
a(I2339
I2340
tp1863
a(I796
I797
tp1864
a(I2338
I2339
tp1865
a(I795
I796
tp1866
a(I25
I26
tp1867
a(I2337
I2338
tp1868
a(I794
I795
tp1869
a(I2327
I2328
tp1870
a(I784
I785
tp1871
a(I2326
I2327
tp1872
a(I783
I784
tp1873
a(I2325
I2326
tp1874
a(I782
I783
tp1875
a(I10
I11
tp1876
a(I779
I780
tp1877
a(I767
I768
tp1878
a(I761
I762
tp1879
a(I755
I756
tp1880
a(I745
I746
tp1881
a(I743
I744
tp1882
a(I737
I738
tp1883
a(I1505
I1506
tp1884
a(I2279
I2280
tp1885
a(I736
I737
tp1886
a(I1504
I1505
tp1887
a(I2278
I2279
tp1888
a(I735
I736
tp1889
a(I1503
I1504
tp1890
a(I2277
I2278
tp1891
a(I734
I735
tp1892
a(I1502
I1503
tp1893
a(I2276
I2277
tp1894
a(I733
I734
tp1895
a(I731
I732
tp1896
a(I1499
I1500
tp1897
a(I730
I731
tp1898
a(I1498
I1499
tp1899
a(I729
I730
tp1900
a(I713
I714
tp1901
a(I707
I708
tp1902
a(I699
I700
tp1903
a(I698
I699
tp1904
a(I697
I698
tp1905
a(I689
I690
tp1906
a(I1457
I1458
tp1907
a(I688
I689
tp1908
a(I2999
I3000
tp1909
a(I1456
I1457
tp1910
a(I687
I688
tp1911
a(I2998
I2999
tp1912
a(I1455
I1456
tp1913
a(I686
I687
tp1914
a(I2997
I2998
tp1915
a(I1454
I1455
tp1916
a(I685
I686
tp1917
a(I683
I684
tp1918
a(I1451
I1452
tp1919
a(I682
I683
tp1920
a(I1450
I1451
tp1921
a(I681
I682
tp1922
a(I2992
I2993
tp1923
a(I1449
I1450
tp1924
a(I680
I681
tp1925
a(I2991
I2992
tp1926
a(I1448
I1449
tp1927
a(I2222
I2223
tp1928
a(I679
I680
tp1929
a(I677
I678
tp1930
a(I2986
I2987
tp1931
a(I1443
I1444
tp1932
a(I2217
I2218
tp1933
a(I674
I675
tp1934
a(I2210
I2211
tp1935
a(I667
I668
tp1936
a(I641
I642
tp1937
a(I1409
I1410
tp1938
a(I2183
I2184
tp1939
a(I640
I641
tp1940
a(I1408
I1409
tp1941
a(I2182
I2183
tp1942
a(I639
I640
tp1943
a(I1407
I1408
tp1944
a(I2181
I2182
tp1945
a(I638
I639
tp1946
a(I1406
I1407
tp1947
a(I637
I638
tp1948
a(I611
I612
tp1949
a(I2153
I2154
tp1950
a(I610
I611
tp1951
a(I609
I610
tp1952
a(I608
I609
tp1953
a(I605
I606
tp1954
a(I593
I594
tp1955
a(I2135
I2136
tp1956
a(I592
I593
tp1957
a(I2134
I2135
tp1958
a(I591
I592
tp1959
a(I2133
I2134
tp1960
a(I590
I591
tp1961
a(I2132
I2133
tp1962
a(I589
I590
tp1963
a(I587
I588
tp1964
a(I2513
I2514
tp1965
a(I970
I971
tp1966
a(I581
I582
tp1967
a(I2512
I2513
tp1968
a(I969
I970
tp1969
a(I2123
I2124
tp1970
a(I580
I581
tp1971
a(I2511
I2512
tp1972
a(I968
I969
tp1973
a(I579
I580
tp1974
a(I2510
I2511
tp1975
a(I967
I968
tp1976
a(I578
I579
tp1977
a(I577
I578
tp1978
a(I575
I576
tp1979
a(I574
I575
tp1980
a(I573
I574
tp1981
a(I572
I573
tp1982
a(I571
I572
tp1983
a(I2501
I2502
tp1984
a(I958
I959
tp1985
a(I569
I570
tp1986
a(I1709
I1710
tp1987
a(I1714
I1715
tp1988
a(I171
I172
tp1989
a(I2483
I2484
tp1990
a(I940
I941
tp1991
a(I551
I552
tp1992
a(I1708
I1709
tp1993
a(I1713
I1714
tp1994
a(I170
I171
tp1995
a(I2482
I2483
tp1996
a(I939
I940
tp1997
a(I1319
I1320
tp1998
a(I550
I551
tp1999
a(I1707
I1708
tp2000
a(I2481
I2482
tp2001
a(I938
I939
tp2002
a(I1318
I1319
tp2003
a(I2092
I2093
tp2004
a(I549
I550
tp2005
a(I1706
I1707
tp2006
a(I2480
I2481
tp2007
a(I937
I938
tp2008
a(I2860
I2861
tp2009
a(I1317
I1318
tp2010
a(I2091
I2092
tp2011
a(I548
I549
tp2012
a(I2859
I2860
tp2013
a(I1316
I1317
tp2014
a(I2090
I2091
tp2015
a(I547
I548
tp2016
a(I1697
I1698
tp2017
a(I928
I929
tp2018
a(I539
I540
tp2019
a(I1304
I1305
tp2020
a(I535
I536
tp2021
a(I533
I534
tp2022
a(I527
I528
tp2023
a(I521
I522
tp2024
a(I1289
I1290
tp2025
a(I520
I521
tp2026
a(I2831
I2832
tp2027
a(I1288
I1289
tp2028
a(I519
I520
tp2029
a(I2830
I2831
tp2030
a(I1287
I1288
tp2031
a(I518
I519
tp2032
a(I2829
I2830
tp2033
a(I1286
I1287
tp2034
a(I517
I518
tp2035
a(I1673
I1674
tp2036
a(I135
I136
tp2037
a(I2447
I2448
tp2038
a(I904
I905
tp2039
a(I515
I516
tp2040
a(I514
I515
tp2041
a(I513
I514
tp2042
a(I2037
I2038
tp2043
a(I494
I495
tp2044
a(I2036
I2037
tp2045
a(I493
I494
tp2046
a(I2402
I2403
tp2047
a(I859
I860
tp2048
a(I1239
I1240
tp2049
a(I470
I471
tp2050
a(I1238
I1239
tp2051
a(I469
I470
tp2052
a(I449
I450
tp2053
a(I59
I60
tp2054
a(I1991
I1992
tp2055
a(I448
I449
tp2056
a(I827
I828
tp2057
a(I1990
I1991
tp2058
a(I447
I448
tp2059
a(I52
I53
tp2060
a(I1595
I1596
tp2061
a(I2369
I2370
tp2062
a(I826
I827
tp2063
a(I1989
I1990
tp2064
a(I446
I447
tp2065
a(I2366
I2367
tp2066
a(I823
I824
tp2067
a(I1583
I1584
tp2068
a(I45
I46
tp2069
a(I2746
I2747
tp2070
a(I1203
I1204
tp2071
a(I1977
I1978
tp2072
a(I434
I435
tp2073
a(I425
I426
tp2074
a(I35
I36
tp2075
a(I424
I425
tp2076
a(I34
I35
tp2077
a(I423
I424
tp2078
a(I33
I34
tp2079
a(I2734
I2735
tp2080
a(I1191
I1192
tp2081
a(I422
I423
tp2082
a(I2348
I2349
tp2083
a(I805
I806
tp2084
a(I1185
I1186
tp2085
a(I1959
I1960
tp2086
a(I416
I417
tp2087
a(I1946
I1947
tp2088
a(I403
I404
tp2089
a(I2324
I2325
tp2090
a(I781
I782
tp2091
a(I1935
I1936
tp2092
a(I392
I393
tp2093
a(I1934
I1935
tp2094
a(I391
I392
tp2095
a(I1535
I1536
tp2096
a(I766
I767
tp2097
a(I377
I378
tp2098
a(I1534
I1535
tp2099
a(I2308
I2309
tp2100
a(I765
I766
tp2101
a(I1145
I1146
tp2102
a(I1919
I1920
tp2103
a(I376
I377
tp2104
a(I1533
I1534
tp2105
a(I764
I765
tp2106
a(I1144
I1145
tp2107
a(I1918
I1919
tp2108
a(I375
I376
tp2109
a(I1532
I1533
tp2110
a(I763
I764
tp2111
a(I1143
I1144
tp2112
a(I1917
I1918
tp2113
a(I374
I375
tp2114
a(I1142
I1143
tp2115
a(I1916
I1917
tp2116
a(I373
I374
tp2117
a(I362
I363
tp2118
a(I1905
I1906
tp2119
a(I367
I368
tp2120
a(I1899
I1900
tp2121
a(I1130
I1131
tp2122
a(I1511
I1512
tp2123
a(I2285
I2286
tp2124
a(I742
I743
tp2125
a(I353
I354
tp2126
a(I1510
I1511
tp2127
a(I2284
I2285
tp2128
a(I741
I742
tp2129
a(I352
I353
tp2130
a(I1509
I1510
tp2131
a(I2283
I2284
tp2132
a(I740
I741
tp2133
a(I351
I352
tp2134
a(I349
I350
tp2135
a(I1877
I1878
tp2136
a(I1108
I1109
tp2137
a(I1876
I1877
tp2138
a(I1107
I1108
tp2139
a(I1875
I1876
tp2140
a(I1106
I1107
tp2141
a(I320
I321
tp2142
a(I1863
I1864
tp2143
a(I2637
I2638
tp2144
a(I1094
I1095
tp2145
a(I1481
I1482
tp2146
a(I2255
I2256
tp2147
a(I712
I713
tp2148
a(I1861
I1862
tp2149
a(I323
I324
tp2150
a(I2254
I2255
tp2151
a(I711
I712
tp2152
a(I1865
I1866
tp2153
a(I322
I323
tp2154
a(I2253
I2254
tp2155
a(I710
I711
tp2156
a(I316
I317
tp2157
a(I1859
I1860
tp2158
a(I1864
I1865
tp2159
a(I321
I322
tp2160
a(I2252
I2253
tp2161
a(I709
I710
tp2162
a(I315
I316
tp2163
a(I1858
I1859
tp2164
a(I512
I513
tp2165
a(I314
I315
tp2166
a(I1857
I1858
tp2167
a(I706
I707
tp2168
a(I1855
I1856
tp2169
a(I317
I318
tp2170
a(I898
I899
tp2171
a(I509
I510
tp2172
a(I705
I706
tp2173
a(I897
I898
tp2174
a(I119
I120
tp2175
a(I508
I509
tp2176
a(I704
I705
tp2177
a(I1853
I1854
tp2178
a(I896
I897
tp2179
a(I507
I508
tp2180
a(I703
I704
tp2181
a(I1852
I1853
tp2182
a(I895
I896
tp2183
a(I112
I113
tp2184
a(I1655
I1656
tp2185
a(I117
I118
tp2186
a(I506
I507
tp2187
a(I1851
I1852
tp2188
a(I2619
I2620
tp2189
a(I1076
I1077
tp2190
a(I1445
I1446
tp2191
a(I2219
I2220
tp2192
a(I676
I677
tp2193
a(I287
I288
tp2194
a(I2987
I2988
tp2195
a(I1444
I1445
tp2196
a(I2218
I2219
tp2197
a(I675
I676
tp2198
a(I1055
I1056
tp2199
a(I286
I287
tp2200
a(I1807
I1808
tp2201
a(I269
I270
tp2202
a(I1037
I1038
tp2203
a(I262
I263
tp2204
a(I1805
I1806
tp2205
a(I1036
I1037
tp2206
a(I261
I262
tp2207
a(I1804
I1805
tp2208
a(I1035
I1036
tp2209
a(I260
I261
tp2210
a(I1803
I1804
tp2211
a(I1034
I1035
tp2212
a(I1797
I1798
tp2213
a(I2571
I2572
tp2214
a(I1028
I1029
tp2215
a(I1004
I1005
tp2216
a(I235
I236
tp2217
a(I607
I608
tp2218
a(I213
I214
tp2219
a(I1756
I1757
tp2220
a(I2336
I2337
tp2221
a(I793
I794
tp2222
a(I1947
I1948
tp2223
a(I404
I405
tp2224
a(I2523
I2524
tp2225
a(I980
I981
tp2226
a(I1731
I1732
tp2227
a(I193
I194
tp2228
a(I2500
I2501
tp2229
a(I957
I958
tp2230
a(I1337
I1338
tp2231
a(I568
I569
tp2232
a(I1717
I1718
tp2233
a(I179
I180
tp2234
a(I760
I761
tp2235
a(I371
I372
tp2236
a(I2499
I2500
tp2237
a(I956
I957
tp2238
a(I1336
I1337
tp2239
a(I567
I568
tp2240
a(I178
I179
tp2241
a(I759
I760
tp2242
a(I1913
I1914
tp2243
a(I370
I371
tp2244
a(I2498
I2499
tp2245
a(I955
I956
tp2246
a(I1335
I1336
tp2247
a(I2109
I2110
tp2248
a(I566
I567
tp2249
a(I758
I759
tp2250
a(I1912
I1913
tp2251
a(I369
I370
tp2252
a(I1334
I1335
tp2253
a(I2108
I2109
tp2254
a(I565
I566
tp2255
a(I757
I758
tp2256
a(I363
I364
tp2257
a(I1906
I1907
tp2258
a(I368
I369
tp2259
a(I1903
I1904
tp2260
a(I365
I366
tp2261
a(I1133
I1134
tp2262
a(I1907
I1908
tp2263
a(I364
I365
tp2264
a(I1901
I1902
tp2265
a(I1132
I1133
tp2266
a(I1900
I1901
tp2267
a(I1131
I1132
tp2268
a(I2282
I2283
tp2269
a(I739
I740
tp2270
a(I350
I351
tp2271
a(I935
I936
tp2272
a(I1695
I1696
tp2273
a(I926
I927
tp2274
a(I157
I158
tp2275
a(I1581
I1582
tp2276
a(I43
I44
tp2277
a(I1005
I1006
tp2278
a(I236
I237
tp2279
a(I139
I140
tp2280
a(I1295
I1296
tp2281
a(I2069
I2070
tp2282
a(I526
I527
tp2283
a(I137
I138
tp2284
a(I1867
I1868
tp2285
a(I329
I330
tp2286
a(I2837
I2838
tp2287
a(I1294
I1295
tp2288
a(I2068
I2069
tp2289
a(I525
I526
tp2290
a(I1097
I1098
tp2291
a(I2067
I2068
tp2292
a(I524
I525
tp2293
a(I2639
I2640
tp2294
a(I1096
I1097
tp2295
a(I2066
I2067
tp2296
a(I523
I524
tp2297
a(I1672
I1673
tp2298
a(I134
I135
tp2299
a(I2638
I2639
tp2300
a(I1095
I1096
tp2301
a(I142
I143
tp2302
a(I911
I912
tp2303
a(I1671
I1672
tp2304
a(I133
I134
tp2305
a(I22
I23
tp2306
a(I1373
I1374
tp2307
a(I2147
I2148
tp2308
a(I604
I605
tp2309
a(I1753
I1754
tp2310
a(I215
I216
tp2311
a(I101
I102
tp2312
a(I98
I99
tp2313
a(I867
I868
tp2314
a(I89
I90
tp2315
a(I1609
I1610
tp2316
a(I71
I72
tp2317
a(I1801
I1802
tp2318
a(I263
I264
tp2319
a(I1031
I1032
tp2320
a(I1799
I1800
tp2321
a(I2573
I2574
tp2322
a(I1030
I1031
tp2323
a(I1798
I1799
tp2324
a(I2572
I2573
tp2325
a(I1029
I1030
tp2326
a(I1747
I1748
tp2327
a(I209
I210
tp2328
a(I2433
I2434
tp2329
a(I890
I891
tp2330
a(I51
I52
tp2331
a(I1594
I1595
tp2332
a(I2368
I2369
tp2333
a(I825
I826
tp2334
a(I1988
I1989
tp2335
a(I445
I446
tp2336
a(I1549
I1550
tp2337
a(I11
I12
tp2338
a(I1943
I1944
tp2339
a(I400
I401
tp2340
a(I976
I977
tp2341
a(I207
I208
tp2342
a(I1265
I1266
tp2343
a(I2039
I2040
tp2344
a(I496
I497
tp2345
a(I1653
I1654
tp2346
a(I110
I111
tp2347
a(I1942
I1943
tp2348
a(I399
I400
tp2349
a(I975
I976
tp2350
a(I206
I207
tp2351
a(I2038
I2039
tp2352
a(I495
I496
tp2353
a(I50
I51
tp2354
a(I1593
I1594
tp2355
a(I2367
I2368
tp2356
a(I824
I825
tp2357
a(I1591
I1592
tp2358
a(I53
I54
tp2359
a(I1694
I1695
tp2360
a(I925
I926
tp2361
a(I1305
I1306
tp2362
a(I536
I537
tp2363
a(I47
I48
tp2364
a(I1205
I1206
tp2365
a(I1979
I1980
tp2366
a(I436
I437
tp2367
a(I46
I47
tp2368
a(I2747
I2748
tp2369
a(I1204
I1205
tp2370
a(I1978
I1979
tp2371
a(I435
I436
tp2372
a(I2129
I2130
tp2373
a(I586
I587
tp2374
a(I197
I198
tp2375
a(I1582
I1583
tp2376
a(I44
I45
tp2377
a(I2745
I2746
tp2378
a(I1202
I1203
tp2379
a(I1976
I1977
tp2380
a(I433
I434
tp2381
a(I2128
I2129
tp2382
a(I585
I586
tp2383
a(I196
I197
tp2384
a(I1301
I1302
tp2385
a(I532
I533
tp2386
a(I143
I144
tp2387
a(I97
I98
tp2388
a(I866
I867
tp2389
a(I88
I89
tp2390
a(I32
I33
tp2391
a(I2733
I2734
tp2392
a(I1190
I1191
tp2393
a(I421
I422
tp2394
a(I2405
I2406
tp2395
a(I862
I863
tp2396
a(I473
I474
tp2397
a(I865
I866
tp2398
a(I1625
I1626
tp2399
a(I87
I88
tp2400
a(I2404
I2405
tp2401
a(I861
I862
tp2402
a(I1241
I1242
tp2403
a(I472
I473
tp2404
a(I1624
I1625
tp2405
a(I86
I87
tp2406
a(I2403
I2404
tp2407
a(I860
I861
tp2408
a(I1240
I1241
tp2409
a(I471
I472
tp2410
a(I863
I864
tp2411
a(I1623
I1624
tp2412
a(I85
I86
tp2413
a(I2349
I2350
tp2414
a(I806
I807
tp2415
a(I1186
I1187
tp2416
a(I1960
I1961
tp2417
a(I417
I418
tp2418
a(I809
I810
tp2419
a(I31
I32
tp2420
a(I401
I402
tp2421
a(I977
I978
tp2422
a(I208
I209
tp2423
a(I497
I498
tp2424
a(I2432
I2433
tp2425
a(I889
I890
tp2426
a(I1654
I1655
tp2427
a(I111
I112
tp2428
a(I1184
I1185
tp2429
a(I1958
I1959
tp2430
a(I415
I416
tp2431
a(I2350
I2351
tp2432
a(I807
I808
tp2433
a(I29
I30
tp2434
a(I1696
I1697
tp2435
a(I927
I928
tp2436
a(I1307
I1308
tp2437
a(I538
I539
tp2438
a(I1687
I1688
tp2439
a(I149
I150
tp2440
a(I212
I213
tp2441
a(I1755
I1756
tp2442
a(I1952
I1953
tp2443
a(I409
I410
tp2444
a(I23
I24
tp2445
a(I1306
I1307
tp2446
a(I537
I538
tp2447
a(I437
I438
tp2448
a(I116
I117
tp2449
a(I505
I506
tp2450
a(I2127
I2128
tp2451
a(I584
I585
tp2452
a(I1733
I1734
tp2453
a(I195
I196
tp2454
a(I2843
I2844
tp2455
a(I1300
I1301
tp2456
a(I531
I532
tp2457
a(I1007
I1008
tp2458
a(I238
I239
tp2459
a(I1372
I1373
tp2460
a(I2146
I2147
tp2461
a(I603
I604
tp2462
a(I983
I984
tp2463
a(I1547
I1548
tp2464
a(I9
I10
tp2465
a(I1941
I1942
tp2466
a(I398
I399
tp2467
a(I974
I975
tp2468
a(I1546
I1547
tp2469
a(I8
I9
tp2470
a(I1940
I1941
tp2471
a(I397
I398
tp2472
a(I2126
I2127
tp2473
a(I583
I584
tp2474
a(I1732
I1733
tp2475
a(I194
I195
tp2476
a(I2842
I2843
tp2477
a(I1299
I1300
tp2478
a(I530
I531
tp2479
a(I141
I142
tp2480
a(I1006
I1007
tp2481
a(I237
I238
tp2482
a(I2145
I2146
tp2483
a(I602
I603
tp2484
a(I2525
I2526
tp2485
a(I982
I983
tp2486
a(I2841
I2842
tp2487
a(I1298
I1299
tp2488
a(I529
I530
tp2489
a(I140
I141
tp2490
a(I2144
I2145
tp2491
a(I601
I602
tp2492
a(I2524
I2525
tp2493
a(I981
I982
tp2494
a(I893
I894
tp2495
a(I115
I116
tp2496
a(I2434
I2435
tp2497
a(I891
I892
tp2498
a(I1651
I1652
tp2499
a(I113
I114
tp2500
a(I785
I786
tp2501
a(I7
I8
tp2502
aa(lp2503
a.