(lp1
(dp2
S'lambda_adr'
p3
F1
sS'state'
p4
I2
sS'res_id'
p5
I1
sS'mass'
p6
F1
sS'v'
c_espressopp
Real3D
p7
(F-0.98319503602806735
F0.397006839242389
F0.52542102453972062
tRp8
sS'type'
p9
I1
sS'pid'
p10
I1
sS'pos'
p11
g7
(F5.7995721413575527
F0.63735428689085971
F7.7770404591837723
tRp12
sa(dp13
g3
F0
sg4
I1
sg5
I2
sg6
F0.20000000000000001
sS'v'
g7
(F0.034343640018122575
F-0.012516274590529676
F0.31585598156761846
tRp14
sg9
I4
sg10
I2
sg11
g7
(F8.5207957508491869
F4.2034767349382207
F3.1170817775070199
tRp15
sa(dp16
g3
F1
sg4
I2
sg5
I3
sg6
F1
sS'v'
g7
(F0.01934623070420069
F0.26063013033943105
F-1.0322465005731241
tRp17
sg9
I1
sg10
I3
sg11
g7
(F4.0910201620927573
F5.505698187261892
F3.5126548733010186
tRp18
sa(dp19
g3
F0
sg4
I1
sg5
I4
sg6
F0.20000000000000001
sS'v'
g7
(F0.13345916827921819
F-0.10535579136261904
F0.15634145165402694
tRp20
sg9
I4
sg10
I4
sg11
g7
(F0.0229448429674785
F0.026007424477850948
F1.2900443122508445
tRp21
sa(dp22
g3
F1
sg4
I2
sg5
I5
sg6
F1
sS'v'
g7
(F0.063482400880272544
F-0.23714879137814485
F-0.10140032242722548
tRp23
sg9
I1
sg10
I5
sg11
g7
(F4.6605849078554584
F3.3937964806657837
F0.5080435766970407
tRp24
sa(dp25
g3
F0
sg4
I1
sg5
I6
sg6
F0.20000000000000001
sS'v'
g7
(F-0.54596072727706146
F-0.98070410677943431
F-0.31676727362612483
tRp26
sg9
I4
sg10
I6
sg11
g7
(F7.6356241097518911
F5.6245407993003464
F4.449328138374117
tRp27
sa(dp28
g3
F1
sg4
I2
sg5
I7
sg6
F1
sS'v'
g7
(F-0.12302255191601077
F-0.47747848269608723
F1.0847666959590241
tRp29
sg9
I1
sg10
I7
sg11
g7
(F1.3106696114869727
F8.7183354471899115
F4.1465240973248303
tRp30
sa(dp31
g3
F0
sg4
I1
sg5
I8
sg6
F0.20000000000000001
sS'v'
g7
(F0.0077527520292300471
F-0.69321698640557805
F-1.1566874297654148
tRp32
sg9
I4
sg10
I8
sg11
g7
(F3.6876875319571951
F1.4715792323144012
F0.77497219919477001
tRp33
sa(dp34
g3
F1
sg4
I2
sg5
I9
sg6
F1
sS'v'
g7
(F0.17123550519489139
F1.2356361967768268
F-0.5645556851254967
tRp35
sg9
I1
sg10
I9
sg11
g7
(F3.9476598542165058
F4.7202979782046031
F2.3464674493656688
tRp36
sa(dp37
g3
F0
sg4
I1
sg5
I10
sg6
F0.20000000000000001
sS'v'
g7
(F-0.1885169131901191
F0.057711490127743847
F0.6650258606738233
tRp38
sg9
I4
sg10
I10
sg11
g7
(F9.9630321382664206
F3.4632486442740529
F6.0173711098405906
tRp39
sa(dp40
g3
F1
sg4
I2
sg5
I11
sg6
F1
sS'v'
g7
(F-0.38664008942594458
F-0.36249112206627193
F-0.47297794383605285
tRp41
sg9
I1
sg10
I11
sg11
g7
(F1.6821483690258272
F1.3580042723522183
F1.0195732508286219
tRp42
sa(dp43
g3
F0
sg4
I1
sg5
I12
sg6
F0.20000000000000001
sS'v'
g7
(F1.6571248797873639
F0.56394436632722877
F-0.17998103197449733
tRp44
sg9
I4
sg10
I12
sg11
g7
(F6.0736080928218286
F5.0096762589409138
F0.054402818688715049
tRp45
sa(dp46
g3
F1
sg4
I2
sg5
I13
sg6
F1
sS'v'
g7
(F-0.21221095332889417
F-0.043345961498508681
F-0.47567617228749109
tRp47
sg9
I1
sg10
I13
sg11
g7
(F1.7874452487433579
F5.1852432604040084
F8.3206171369663249
tRp48
sa(dp49
g3
F0
sg4
I1
sg5
I14
sg6
F0.20000000000000001
sS'v'
g7
(F0.29740454914885556
F1.1790777795352125
F-0.80485507981886939
tRp50
sg9
I4
sg10
I14
sg11
g7
(F4.1522879530182841
F1.5743511835388795
F5.5110526120739864
tRp51
sa(dp52
g3
F1
sg4
I2
sg5
I15
sg6
F1
sS'v'
g7
(F0.26281846814723719
F-0.45835819310019549
F0.20664693149816626
tRp53
sg9
I1
sg10
I15
sg11
g7
(F2.0374400499647707
F0.60294880776349424
F6.1603378124984642
tRp54
sa(dp55
g3
F0
sg4
I1
sg5
I16
sg6
F0.20000000000000001
sS'v'
g7
(F-0.39705127212056351
F0.97729679046035722
F0.2811686406525577
tRp56
sg9
I4
sg10
I16
sg11
g7
(F3.5339576795692738
F2.178034838913586
F7.6764032636526958
tRp57
sa(dp58
g3
F1
sg4
I2
sg5
I17
sg6
F1
sS'v'
g7
(F1.0646125849200898
F-1.157829132449443
F-0.62714254939780534
tRp59
sg9
I1
sg10
I17
sg11
g7
(F5.8761767517794485
F7.3217183353742783
F3.4770652565715481
tRp60
sa(dp61
g3
F0
sg4
I1
sg5
I18
sg6
F0.20000000000000001
sS'v'
g7
(F-0.46606335391572146
F-0.22392450433989722
F-0.68706096649122939
tRp62
sg9
I4
sg10
I18
sg11
g7
(F9.5334862552387012
F7.1449921935702996
F8.4378713762417483
tRp63
sa(dp64
g3
F1
sg4
I2
sg5
I19
sg6
F1
sS'v'
g7
(F0.027796522556134733
F0.50048578726736115
F-0.098572891881602273
tRp65
sg9
I1
sg10
I19
sg11
g7
(F7.4692515565062223
F1.8323327037687018
F7.9405632180214676
tRp66
sa(dp67
g3
F0
sg4
I1
sg5
I20
sg6
F0.20000000000000001
sS'v'
g7
(F0.2044726809954025
F-0.47888509038824734
F-0.84734707727287994
tRp68
sg9
I4
sg10
I20
sg11
g7
(F0.87449282793435801
F7.1288923398015243
F6.0718946207812667
tRp69
sa(dp70
g3
F1
sg4
I2
sg5
I21
sg6
F1
sS'v'
g7
(F-0.15606052281448388
F0.43933061835916687
F-1.4484847240728038
tRp71
sg9
I1
sg10
I21
sg11
g7
(F9.5043833995320188
F9.1361667190118112
F0.56853300199097923
tRp72
sa(dp73
g3
F0
sg4
I1
sg5
I22
sg6
F0.20000000000000001
sS'v'
g7
(F-1.0567312184539588
F0.58043829099989008
F0.25245952897896867
tRp74
sg9
I4
sg10
I22
sg11
g7
(F4.0347119225538091
F8.8241062754503279
F7.2015689160522474
tRp75
sa(dp76
g3
F1
sg4
I2
sg5
I23
sg6
F1
sS'v'
g7
(F-1.1046675517972151
F-0.71842954716886354
F-0.22548846487547661
tRp77
sg9
I1
sg10
I23
sg11
g7
(F0.32545817300074109
F4.5143084363736286
F5.6329636122001583
tRp78
sa(dp79
g3
F0
sg4
I1
sg5
I24
sg6
F0.20000000000000001
sS'v'
g7
(F-0.36722378862035976
F-0.35966580191996561
F-0.59089007160194373
tRp80
sg9
I4
sg10
I24
sg11
g7
(F2.2714507180886603
F5.8494266994175756
F2.6747098279734827
tRp81
sa(dp82
g3
F1
sg4
I2
sg5
I25
sg6
F1
sS'v'
g7
(F0.52530967417592989
F-0.52723692502759922
F-0.61739687673193622
tRp83
sg9
I1
sg10
I25
sg11
g7
(F0.55285253305934756
F0.34812901200563995
F8.699179251253728
tRp84
sa(dp85
g3
F0
sg4
I1
sg5
I26
sg6
F0.20000000000000001
sS'v'
g7
(F-0.36894054827448475
F0.17883381587979386
F-0.39085862677782707
tRp86
sg9
I4
sg10
I26
sg11
g7
(F9.7601241910872094
F9.5256808611148003
F4.252987379216643
tRp87
sa(dp88
g3
F1
sg4
I2
sg5
I27
sg6
F1
sS'v'
g7
(F-1.804517586505284
F0.68779165180423052
F-0.055836393860470707
tRp89
sg9
I1
sg10
I27
sg11
g7
(F3.1915683766418517
F0.46827146222870791
F8.1284564649501441
tRp90
sa(dp91
g3
F0
sg4
I1
sg5
I28
sg6
F0.20000000000000001
sS'v'
g7
(F-0.63915609157583875
F0.68249564738233615
F0.4779968224631011
tRp92
sg9
I4
sg10
I28
sg11
g7
(F0.99995470578793577
F5.6916339367615834
F7.255198230494103
tRp93
sa(dp94
g3
F1
sg4
I2
sg5
I29
sg6
F1
sS'v'
g7
(F-0.24740784709225644
F0.75169092193843268
F-0.20667454581220243
tRp95
sg9
I1
sg10
I29
sg11
g7
(F6.8301429555918034
F1.5795735390440084
F9.4366271800151438
tRp96
sa(dp97
g3
F0
sg4
I1
sg5
I30
sg6
F0.20000000000000001
sS'v'
g7
(F-0.47134672798565408
F-0.14311871488475761
F1.5510831343587643
tRp98
sg9
I4
sg10
I30
sg11
g7
(F6.8741949811957124
F1.0525454940245291
F3.3006226579577782
tRp99
sa(dp100
g3
F1
sg4
I2
sg5
I31
sg6
F1
sS'v'
g7
(F-0.4229024990209343
F0.21715417223105973
F-0.14291171101191191
tRp101
sg9
I1
sg10
I31
sg11
g7
(F1.3998942385600037
F9.5989324131117399
F8.1090107679796883
tRp102
sa(dp103
g3
F0
sg4
I1
sg5
I32
sg6
F0.20000000000000001
sS'v'
g7
(F0.73257583269556259
F0.34453010746885215
F-0.70994753857668091
tRp104
sg9
I4
sg10
I32
sg11
g7
(F2.5757773403996045
F3.6828912978757482
F4.7928707613359611
tRp105
sa(dp106
g3
F1
sg4
I2
sg5
I33
sg6
F1
sS'v'
g7
(F-0.51294715944721259
F-0.95143079408814357
F-0.023115630531036942
tRp107
sg9
I1
sg10
I33
sg11
g7
(F6.0725672532384207
F4.7294536498859161
F9.3057266012377102
tRp108
sa(dp109
g3
F0
sg4
I1
sg5
I34
sg6
F0.20000000000000001
sS'v'
g7
(F0.2705244906700055
F2.2586415626857055
F0.23205078550420927
tRp110
sg9
I4
sg10
I34
sg11
g7
(F8.976258954901148
F4.1849247932833071
F3.8314300475396079
tRp111
sa(dp112
g3
F1
sg4
I2
sg5
I35
sg6
F1
sS'v'
g7
(F0.31768377461514663
F-0.56721253936505789
F-0.33756527563522232
tRp113
sg9
I1
sg10
I35
sg11
g7
(F5.7813314405918206
F5.1617244182374797
F7.2602700817974197
tRp114
sa(dp115
g3
F0
sg4
I1
sg5
I36
sg6
F0.20000000000000001
sS'v'
g7
(F0.50265678467012809
F0.024421409315368372
F1.4476141294639262
tRp116
sg9
I4
sg10
I36
sg11
g7
(F1.3656059496951436
F9.317011771460102
F8.1717747034297812
tRp117
sa(dp118
g3
F1
sg4
I2
sg5
I37
sg6
F1
sS'v'
g7
(F1.1162312623371804
F1.0985840974673808
F-0.041341267446844972
tRp119
sg9
I1
sg10
I37
sg11
g7
(F6.557563969556746
F3.2475141525731632
F9.9311866879164317
tRp120
sa(dp121
g3
F0
sg4
I1
sg5
I38
sg6
F0.20000000000000001
sS'v'
g7
(F-0.59284258111520827
F-0.024600450861645643
F0.045579465675681177
tRp122
sg9
I4
sg10
I38
sg11
g7
(F0.45015949765664975
F1.0348771685079328
F6.6160753677527495
tRp123
sa(dp124
g3
F1
sg4
I2
sg5
I39
sg6
F1
sS'v'
g7
(F-0.45711051368096317
F-1.0524883026655776
F0.36651372139953181
tRp125
sg9
I1
sg10
I39
sg11
g7
(F7.5774553144743786
F4.943915428391457
F5.4310847522171253
tRp126
sa(dp127
g3
F0
sg4
I1
sg5
I40
sg6
F0.20000000000000001
sS'v'
g7
(F1.3491887954221085
F-0.21651149129012479
F-0.60351716275431455
tRp128
sg9
I4
sg10
I40
sg11
g7
(F1.5119276834174951
F5.4222531632216535
F6.2130679797143813
tRp129
sa(dp130
g3
F1
sg4
I2
sg5
I41
sg6
F1
sS'v'
g7
(F-0.39508328999154108
F-0.084815204134690111
F0.17390371508592534
tRp131
sg9
I1
sg10
I41
sg11
g7
(F2.2483097051898207
F2.2326016469784231
F1.9561227968892014
tRp132
sa(dp133
g3
F0
sg4
I1
sg5
I42
sg6
F0.20000000000000001
sS'v'
g7
(F-0.23769867971731129
F0.68159960585770674
F-0.55819113492775452
tRp134
sg9
I4
sg10
I42
sg11
g7
(F0.77811990953007237
F1.4810861052367339
F0.41928772526086333
tRp135
sa(dp136
g3
F1
sg4
I2
sg5
I43
sg6
F1
sS'v'
g7
(F1.0021102442713576
F0.42233001220963551
F0.40695790207795157
tRp137
sg9
I1
sg10
I43
sg11
g7
(F7.1365104563086224
F8.5995834967564022
F6.2537415279024247
tRp138
sa(dp139
g3
F0
sg4
I1
sg5
I44
sg6
F0.20000000000000001
sS'v'
g7
(F-0.74393454891323418
F-0.63107625339741003
F-0.0075423549693538908
tRp140
sg9
I4
sg10
I44
sg11
g7
(F6.1333921284718684
F4.2376187734970978
F3.3065960991008225
tRp141
sa(dp142
g3
F1
sg4
I2
sg5
I45
sg6
F1
sS'v'
g7
(F0.67216555160562552
F-0.28092600761345704
F-0.4585870663047707
tRp143
sg9
I1
sg10
I45
sg11
g7
(F4.3272440310183793
F4.7516792000575903
F9.7672241510751689
tRp144
sa(dp145
g3
F0
sg4
I1
sg5
I46
sg6
F0.20000000000000001
sS'v'
g7
(F0.38173906998347695
F1.3591986896188673
F0.4494743759109982
tRp146
sg9
I4
sg10
I46
sg11
g7
(F0.1329869059734376
F2.3704399080602414
F7.5922371565943259
tRp147
sa(dp148
g3
F1
sg4
I2
sg5
I47
sg6
F1
sS'v'
g7
(F0.09840878138478823
F0.43161912945064074
F-0.90394416861658211
tRp149
sg9
I1
sg10
I47
sg11
g7
(F1.4485797868683048
F6.3625209494555337
F2.1467115803541761
tRp150
sa(dp151
g3
F0
sg4
I1
sg5
I48
sg6
F0.20000000000000001
sS'v'
g7
(F0.79759038351775935
F-0.82194970907555942
F0.75291132704933939
tRp152
sg9
I4
sg10
I48
sg11
g7
(F5.4750948083703284
F7.5333259080756907
F7.8617078947049341
tRp153
sa(dp154
g3
F1
sg4
I2
sg5
I49
sg6
F1
sS'v'
g7
(F-0.013558620659129945
F1.0305167844745966
F1.2649613456761875
tRp155
sg9
I1
sg10
I49
sg11
g7
(F9.096469762632541
F9.1957618887652011
F1.753870080438251
tRp156
sa(dp157
g3
F0
sg4
I1
sg5
I50
sg6
F0.20000000000000001
sS'v'
g7
(F-0.1844041081864165
F-0.47985866486858031
F-1.753466773142331
tRp158
sg9
I4
sg10
I50
sg11
g7
(F7.5983550142550502
F3.8186136926801204
F3.3443755271723568
tRp159
sa(dp160
g3
F1
sg4
I2
sg5
I51
sg6
F1
sS'v'
g7
(F0.57861003406749989
F-0.090366575569667665
F-0.29213539565978536
tRp161
sg9
I1
sg10
I51
sg11
g7
(F0.5990654339831839
F8.9390064746739597
F8.3233858569253645
tRp162
sa(dp163
g3
F0
sg4
I1
sg5
I52
sg6
F0.20000000000000001
sS'v'
g7
(F0.098051159632988077
F0.083328264539460559
F0.64440668216368913
tRp164
sg9
I4
sg10
I52
sg11
g7
(F1.1326380653757269
F2.4467627150542421
F5.974720591148456
tRp165
sa(dp166
g3
F1
sg4
I2
sg5
I53
sg6
F1
sS'v'
g7
(F-0.37162406690160138
F-1.2034351788613022
F1.5070870280217254
tRp167
sg9
I1
sg10
I53
sg11
g7
(F9.0125910721426692
F2.0012439899275853
F9.4959074202125979
tRp168
sa(dp169
g3
F0
sg4
I1
sg5
I54
sg6
F0.20000000000000001
sS'v'
g7
(F-0.94750822680261049
F0.55753779002505743
F0.43505444005679422
tRp170
sg9
I4
sg10
I54
sg11
g7
(F2.2860161289416965
F1.7581531962269417
F5.2360294755610512
tRp171
sa(dp172
g3
F1
sg4
I2
sg5
I55
sg6
F1
sS'v'
g7
(F-0.69722822351746361
F-0.95229969854586438
F0.0057388681923031476
tRp173
sg9
I1
sg10
I55
sg11
g7
(F6.5436394447633592
F8.1938514268000393
F8.1349758548742024
tRp174
sa(dp175
g3
F0
sg4
I1
sg5
I56
sg6
F0.20000000000000001
sS'v'
g7
(F-0.34791507107930314
F0.626906936987221
F0.5994450335426097
tRp176
sg9
I4
sg10
I56
sg11
g7
(F0.40353016215455167
F1.7321599520545263
F7.041341174144006
tRp177
sa(dp178
g3
F1
sg4
I2
sg5
I57
sg6
F1
sS'v'
g7
(F-0.18779989046209561
F1.0325327425587112
F-0.070827447131733015
tRp179
sg9
I1
sg10
I57
sg11
g7
(F2.7058112512230714
F0.16008835987455483
F9.5615087245849413
tRp180
sa(dp181
g3
F0
sg4
I1
sg5
I58
sg6
F0.20000000000000001
sS'v'
g7
(F-0.20323628266174837
F-1.0181482639678177
F0.66313802895917584
tRp182
sg9
I4
sg10
I58
sg11
g7
(F0.2669308234236254
F3.3104048322391981
F2.9041158818282438
tRp183
sa(dp184
g3
F1
sg4
I2
sg5
I59
sg6
F1
sS'v'
g7
(F0.054737859149842243
F-0.26991137196420506
F0.45991423568276418
tRp185
sg9
I1
sg10
I59
sg11
g7
(F8.1866546955754238
F1.8527876196882451
F1.9086291816498684
tRp186
sa(dp187
g3
F0
sg4
I1
sg5
I60
sg6
F0.20000000000000001
sS'v'
g7
(F0.52400587866920967
F0.21745420764618725
F-1.5880858792048771
tRp188
sg9
I4
sg10
I60
sg11
g7
(F8.4829856799709944
F8.8840413215490237
F6.3351843124201555
tRp189
sa(dp190
g3
F1
sg4
I2
sg5
I61
sg6
F1
sS'v'
g7
(F0.50663480940425498
F-0.91311313084072532
F0.20850483709956619
tRp191
sg9
I1
sg10
I61
sg11
g7
(F4.7889505466209021
F8.5232505516460577
F2.9928853125867607
tRp192
sa(dp193
g3
F0
sg4
I1
sg5
I62
sg6
F0.20000000000000001
sS'v'
g7
(F-0.38216873059448309
F-0.9911136575806313
F0.16227391798495974
tRp194
sg9
I4
sg10
I62
sg11
g7
(F3.4139671556095355
F3.2762972023330699
F0.20488536830926352
tRp195
sa(dp196
g3
F1
sg4
I2
sg5
I63
sg6
F1
sS'v'
g7
(F0.40921837093130331
F-0.77826147761195297
F0.09520674339517296
tRp197
sg9
I1
sg10
I63
sg11
g7
(F7.670870013585354
F3.4741872466599375
F4.0372038531174015
tRp198
sa(dp199
g3
F0
sg4
I1
sg5
I64
sg6
F0.20000000000000001
sS'v'
g7
(F0.93715126043775088
F-0.029170364995271886
F-0.07402402644812571
tRp200
sg9
I4
sg10
I64
sg11
g7
(F3.0882517742564772
F8.3803443571519054
F2.7736558130379407
tRp201
sa(dp202
g3
F1
sg4
I2
sg5
I65
sg6
F1
sS'v'
g7
(F0.29248447480757422
F0.094986150618682388
F-0.01806678874347617
tRp203
sg9
I1
sg10
I65
sg11
g7
(F5.7703567966264524
F0.14289176987144236
F1.787973915960672
tRp204
sa(dp205
g3
F0
sg4
I1
sg5
I66
sg6
F0.20000000000000001
sS'v'
g7
(F-0.77381308097434032
F0.51715489192623787
F-0.23449902860274807
tRp206
sg9
I4
sg10
I66
sg11
g7
(F1.7128034581512401
F2.4420323450506074
F2.785352128512887
tRp207
sa(dp208
g3
F1
sg4
I2
sg5
I67
sg6
F1
sS'v'
g7
(F0.83930704674652468
F0.48486564278025757
F-0.52721061595963203
tRp209
sg9
I1
sg10
I67
sg11
g7
(F9.5092945614500444
F0.2566394029866147
F6.5169800612643289
tRp210
sa(dp211
g3
F0
sg4
I1
sg5
I68
sg6
F0.20000000000000001
sS'v'
g7
(F-0.60022309713500599
F-0.80723998699890831
F0.31375238784896003
tRp212
sg9
I4
sg10
I68
sg11
g7
(F3.1278417609684652
F2.1211430742500212
F2.6250404806462737
tRp213
sa(dp214
g3
F1
sg4
I2
sg5
I69
sg6
F1
sS'v'
g7
(F-0.65103151196542974
F-1.0679299240372895
F0.14056783584168453
tRp215
sg9
I1
sg10
I69
sg11
g7
(F8.8725449488335837
F7.7423292685950535
F5.8253504784668229
tRp216
sa(dp217
g3
F0
sg4
I1
sg5
I70
sg6
F0.20000000000000001
sS'v'
g7
(F-0.095347901773409974
F-0.10710523869114487
F-0.10431784766419981
tRp218
sg9
I4
sg10
I70
sg11
g7
(F5.2305124863905945
F2.6042710999412577
F6.5113928990369985
tRp219
sa(dp220
g3
F1
sg4
I2
sg5
I71
sg6
F1
sS'v'
g7
(F0.55353767666462061
F0.016164712239167541
F0.061123955080857065
tRp221
sg9
I1
sg10
I71
sg11
g7
(F5.0232917104038464
F3.6750452400958444
F7.2616995916413005
tRp222
sa(dp223
g3
F0
sg4
I1
sg5
I72
sg6
F0.20000000000000001
sS'v'
g7
(F0.51348121143529446
F0.35650630707910019
F0.65205470808792909
tRp224
sg9
I4
sg10
I72
sg11
g7
(F0.31757813457884881
F3.947064672826917
F5.7002402414927085
tRp225
sa(dp226
g3
F1
sg4
I2
sg5
I73
sg6
F1
sS'v'
g7
(F-1.2849275757689973
F0.3163764201847365
F-0.040602256274282877
tRp227
sg9
I1
sg10
I73
sg11
g7
(F6.2738231163361782
F6.9262618427294917
F7.6660657573479734
tRp228
sa(dp229
g3
F0
sg4
I1
sg5
I74
sg6
F0.20000000000000001
sS'v'
g7
(F1.2196888727887898
F0.92788829896098945
F0.72113745039821964
tRp230
sg9
I4
sg10
I74
sg11
g7
(F1.0413147079101983
F5.0234642656776991
F2.6175471397329324
tRp231
sa(dp232
g3
F1
sg4
I2
sg5
I75
sg6
F1
sS'v'
g7
(F-0.80480568293409982
F1.4148047769340397
F0.29285714285839248
tRp233
sg9
I1
sg10
I75
sg11
g7
(F2.7238460540584608
F4.936774389123249
F5.4862886186495947
tRp234
sa(dp235
g3
F0
sg4
I1
sg5
I76
sg6
F0.20000000000000001
sS'v'
g7
(F-0.71524155615029528
F-1.1851720695799786
F-0.23238017035488395
tRp236
sg9
I4
sg10
I76
sg11
g7
(F4.9888816078182234
F1.7316912971103529
F7.4634043796884004
tRp237
sa(dp238
g3
F1
sg4
I2
sg5
I77
sg6
F1
sS'v'
g7
(F1.0599792616188053
F-0.20737744147191842
F-0.1928299424105433
tRp239
sg9
I1
sg10
I77
sg11
g7
(F9.0438954789430621
F4.459642976352006
F3.5032637861353195
tRp240
sa(dp241
g3
F0
sg4
I1
sg5
I78
sg6
F0.20000000000000001
sS'v'
g7
(F0.55253110411908979
F-0.9864571619865895
F-0.85898708661283307
tRp242
sg9
I4
sg10
I78
sg11
g7
(F6.9628723256961491
F4.8941496252575334
F8.9857129319935005
tRp243
sa(dp244
g3
F1
sg4
I2
sg5
I79
sg6
F1
sS'v'
g7
(F0.89685087243022343
F1.1101047751884208
F-0.75014175488165036
tRp245
sg9
I1
sg10
I79
sg11
g7
(F2.1488921831672227
F4.4975001484350132
F7.1294830697678151
tRp246
sa(dp247
g3
F0
sg4
I1
sg5
I80
sg6
F0.20000000000000001
sS'v'
g7
(F-1.1984571293447617
F0.25770294161936952
F1.7288457580018159
tRp248
sg9
I4
sg10
I80
sg11
g7
(F7.8752181379511672
F8.3134249034397012
F8.3336663906821329
tRp249
sa(dp250
g3
F1
sg4
I2
sg5
I81
sg6
F1
sS'v'
g7
(F0.18871406486352024
F-0.12696206839317051
F0.017522507091749122
tRp251
sg9
I1
sg10
I81
sg11
g7
(F1.3349527593809118
F2.9312340327896802
F1.6936743864784005
tRp252
sa(dp253
g3
F0
sg4
I1
sg5
I82
sg6
F0.20000000000000001
sS'v'
g7
(F0.049156250861850236
F-0.2557551053986426
F0.31401742932290572
tRp254
sg9
I4
sg10
I82
sg11
g7
(F4.9999791902641917
F7.7886835630886635
F5.4095719240015301
tRp255
sa(dp256
g3
F1
sg4
I2
sg5
I83
sg6
F1
sS'v'
g7
(F-0.68843103811466055
F0.0093115217735532628
F-0.60463245537671539
tRp257
sg9
I1
sg10
I83
sg11
g7
(F6.957348821776006
F4.8856544800733639
F0.069679316327598204
tRp258
sa(dp259
g3
F0
sg4
I1
sg5
I84
sg6
F0.20000000000000001
sS'v'
g7
(F0.93324882002132159
F-0.012515140294042023
F-0.045873954250415835
tRp260
sg9
I4
sg10
I84
sg11
g7
(F2.2733285512164905
F9.1071936841595758
F3.3798959162613187
tRp261
sa(dp262
g3
F1
sg4
I2
sg5
I85
sg6
F1
sS'v'
g7
(F-0.1875155919235954
F-0.61007807768232258
F0.42707858349862077
tRp263
sg9
I1
sg10
I85
sg11
g7
(F6.5358823166747966
F4.3839100820253831
F3.3742610792231269
tRp264
sa(dp265
g3
F0
sg4
I1
sg5
I86
sg6
F0.20000000000000001
sS'v'
g7
(F-0.64420667895492345
F0.74727725047205551
F-0.29652088387926628
tRp266
sg9
I4
sg10
I86
sg11
g7
(F0.070660103002756519
F2.2153363918962063
F4.8099110499555362
tRp267
sa(dp268
g3
F1
sg4
I2
sg5
I87
sg6
F1
sS'v'
g7
(F-1.6325318602359233
F-0.40229583583278228
F0.99807981671283152
tRp269
sg9
I1
sg10
I87
sg11
g7
(F4.8107369176370929
F3.9694549013941121
F5.1951850034115417
tRp270
sa(dp271
g3
F0
sg4
I1
sg5
I88
sg6
F0.20000000000000001
sS'v'
g7
(F0.72504502800571058
F0.055337461751056076
F-0.71620499450169373
tRp272
sg9
I4
sg10
I88
sg11
g7
(F2.8776289373836303
F9.248969491701402
F7.2429079658644753
tRp273
sa(dp274
g3
F1
sg4
I2
sg5
I89
sg6
F1
sS'v'
g7
(F0.84307011377119467
F-1.2763177389944733
F0.19206600596175036
tRp275
sg9
I1
sg10
I89
sg11
g7
(F2.0043656922412425
F7.0340931756177021
F9.8855698224972155
tRp276
sa(dp277
g3
F0
sg4
I1
sg5
I90
sg6
F0.20000000000000001
sS'v'
g7
(F-0.10349232275788377
F0.35272388796951298
F-0.65169175465393869
tRp278
sg9
I4
sg10
I90
sg11
g7
(F6.6194528835743256
F4.811142023945262
F2.3512919095331135
tRp279
sa(dp280
g3
F1
sg4
I2
sg5
I91
sg6
F1
sS'v'
g7
(F0.66625472321118473
F-0.60195022937771792
F-0.13146151600399691
tRp281
sg9
I1
sg10
I91
sg11
g7
(F9.6546368268237028
F5.6625603789736427
F2.3806769897375522
tRp282
sa(dp283
g3
F0
sg4
I1
sg5
I92
sg6
F0.20000000000000001
sS'v'
g7
(F-0.54398159769675025
F0.53848093663749419
F1.0159856123057127
tRp284
sg9
I4
sg10
I92
sg11
g7
(F9.8813555031620197
F7.340729753652532
F6.3039515917578175
tRp285
sa(dp286
g3
F1
sg4
I2
sg5
I93
sg6
F1
sS'v'
g7
(F-0.96558179495164764
F1.5038282546004873
F-0.032329299045259809
tRp287
sg9
I1
sg10
I93
sg11
g7
(F8.0542976364799461
F8.5313406945909254
F8.9359723022854709
tRp288
sa(dp289
g3
F0
sg4
I1
sg5
I94
sg6
F0.20000000000000001
sS'v'
g7
(F0.50036422873053377
F-0.50462850425420525
F-1.5751883249004563
tRp290
sg9
I4
sg10
I94
sg11
g7
(F6.3070363085147338
F8.5974472135226545
F7.6037146030328904
tRp291
sa(dp292
g3
F1
sg4
I2
sg5
I95
sg6
F1
sS'v'
g7
(F-0.33995890791274197
F0.11567035446044327
F0.39000670930536796
tRp293
sg9
I1
sg10
I95
sg11
g7
(F3.3813686119067294
F4.2737409483598743
F8.4542349338868377
tRp294
sa(dp295
g3
F0
sg4
I1
sg5
I96
sg6
F0.20000000000000001
sS'v'
g7
(F0.46043670166604478
F1.0428940904511321
F-1.5694862112005254
tRp296
sg9
I4
sg10
I96
sg11
g7
(F1.5309423972080245
F2.4205742439296691
F7.779825324894162
tRp297
sa(dp298
g3
F1
sg4
I2
sg5
I97
sg6
F1
sS'v'
g7
(F-1.7800844522074268
F0.90058945815191094
F0.11010559656804311
tRp299
sg9
I1
sg10
I97
sg11
g7
(F6.2702797191015502
F2.6117311226484392
F7.8666837951225661
tRp300
sa(dp301
g3
F0
sg4
I1
sg5
I98
sg6
F0.20000000000000001
sS'v'
g7
(F0.3600714266008852
F-0.39872818191200315
F-0.039651162266355608
tRp302
sg9
I4
sg10
I98
sg11
g7
(F1.3379630699619254
F0.0092840962755017242
F6.6879020007036161
tRp303
sa(dp304
g3
F1
sg4
I2
sg5
I99
sg6
F1
sS'v'
g7
(F-0.49680864338157515
F0.17073991579776604
F1.0851504121647384
tRp305
sg9
I1
sg10
I99
sg11
g7
(F5.8852301027859735
F2.5790414557553651
F3.2636442672017978
tRp306
sa(dp307
g3
F0
sg4
I1
sg5
I100
sg6
F0.20000000000000001
sS'v'
g7
(F0.30713687501493325
F-0.1122158370244551
F0.083333001545141436
tRp308
sg9
I4
sg10
I100
sg11
g7
(F6.5633561585306266
F5.2776110413083188
F5.9746519753852398
tRp309
sa(dp310
g3
F1
sg4
I2
sg5
I101
sg6
F1
sS'v'
g7
(F0.26201486816174863
F0.28099710055787064
F1.1836033585978714
tRp311
sg9
I1
sg10
I101
sg11
g7
(F8.2207176471853547
F4.3178087144996233
F6.5189702810512156
tRp312
sa(dp313
g3
F0
sg4
I1
sg5
I102
sg6
F0.20000000000000001
sS'v'
g7
(F-0.62285609714622781
F-0.26328581414037372
F-1.1805456358805626
tRp314
sg9
I4
sg10
I102
sg11
g7
(F4.6939708170307846
F9.8105834275053052
F6.540550176440397
tRp315
sa(dp316
g3
F1
sg4
I2
sg5
I103
sg6
F1
sS'v'
g7
(F-1.266670332780206
F0.61409707954616366
F0.10328212414556553
tRp317
sg9
I1
sg10
I103
sg11
g7
(F1.4179167994022648
F1.3399972846247223
F3.7653696991521377
tRp318
sa(dp319
g3
F0
sg4
I1
sg5
I104
sg6
F0.20000000000000001
sS'v'
g7
(F-0.82705879229764745
F-0.37738795310316359
F-0.14683443398423462
tRp320
sg9
I4
sg10
I104
sg11
g7
(F6.4199521052485951
F5.7646360890926047
F3.4477700315947568
tRp321
sa(dp322
g3
F1
sg4
I2
sg5
I105
sg6
F1
sS'v'
g7
(F0.97951024580571522
F0.065859820992247201
F-0.41746921299877426
tRp323
sg9
I1
sg10
I105
sg11
g7
(F9.4126207253601901
F1.9625030630518734
F5.6664561984725816
tRp324
sa(dp325
g3
F0
sg4
I1
sg5
I106
sg6
F0.20000000000000001
sS'v'
g7
(F0.10382212824683594
F-0.24905533602997612
F0.14011581105467272
tRp326
sg9
I4
sg10
I106
sg11
g7
(F3.887711087623833
F2.0902387462435463
F1.1512884757463555
tRp327
sa(dp328
g3
F1
sg4
I2
sg5
I107
sg6
F1
sS'v'
g7
(F-0.74204620458998427
F0.14618677946747022
F-0.098374260820800266
tRp329
sg9
I1
sg10
I107
sg11
g7
(F6.6583674829522126
F5.8885848180418421
F4.407216913363686
tRp330
sa(dp331
g3
F0
sg4
I1
sg5
I108
sg6
F0.20000000000000001
sS'v'
g7
(F-0.35023947595124333
F0.919283058525448
F-0.18802076603045365
tRp332
sg9
I4
sg10
I108
sg11
g7
(F0.82945055538174128
F2.9289117417995207
F6.3663391022367826
tRp333
sa(dp334
g3
F1
sg4
I2
sg5
I109
sg6
F1
sS'v'
g7
(F0.84215433604331524
F-0.025927659603682592
F-0.75731130631997912
tRp335
sg9
I1
sg10
I109
sg11
g7
(F4.2534330726830261
F2.1590816833515709
F1.9625971181242063
tRp336
sa(dp337
g3
F0
sg4
I1
sg5
I110
sg6
F0.20000000000000001
sS'v'
g7
(F1.1875502107552856
F-0.56096387654605817
F-1.5204733756789399
tRp338
sg9
I4
sg10
I110
sg11
g7
(F1.5308554926775251
F2.1746934059739704
F2.1674012088668633
tRp339
sa(dp340
g3
F1
sg4
I2
sg5
I111
sg6
F1
sS'v'
g7
(F-0.25909340241833539
F-0.13680129425940829
F0.1896935521157094
tRp341
sg9
I1
sg10
I111
sg11
g7
(F4.1748377777595129
F7.7543125823526289
F7.3032252133205615
tRp342
sa(dp343
g3
F0
sg4
I1
sg5
I112
sg6
F0.20000000000000001
sS'v'
g7
(F0.65898063573132704
F0.84118979627331536
F0.5682274279900793
tRp344
sg9
I4
sg10
I112
sg11
g7
(F2.3558962301363393
F9.0277721720471558
F5.2862997029766969
tRp345
sa(dp346
g3
F1
sg4
I2
sg5
I113
sg6
F1
sS'v'
g7
(F-1.1586072364834823
F0.85788266253546519
F0.19940221395294672
tRp347
sg9
I1
sg10
I113
sg11
g7
(F5.6555981099910371
F6.4678887581337206
F5.8396353270683141
tRp348
sa(dp349
g3
F0
sg4
I1
sg5
I114
sg6
F0.20000000000000001
sS'v'
g7
(F0.042282516964442275
F0.062307537631801732
F-0.52111793464000689
tRp350
sg9
I4
sg10
I114
sg11
g7
(F6.4549434396141621
F0.90241364897909437
F3.8661912554016045
tRp351
sa(dp352
g3
F1
sg4
I2
sg5
I115
sg6
F1
sS'v'
g7
(F-0.31149057904622907
F-0.17498205076714238
F0.25629625973897413
tRp353
sg9
I1
sg10
I115
sg11
g7
(F0.94456377869710184
F2.4378258932903685
F5.5396303759277723
tRp354
sa(dp355
g3
F0
sg4
I1
sg5
I116
sg6
F0.20000000000000001
sS'v'
g7
(F-0.28897301958474431
F0.25320113898498886
F0.29668704026025472
tRp356
sg9
I4
sg10
I116
sg11
g7
(F9.0969812837161435
F3.3861220655133226
F3.999109452439328
tRp357
sa(dp358
g3
F1
sg4
I2
sg5
I117
sg6
F1
sS'v'
g7
(F0.50039477073081806
F0.39158084819761568
F-0.19510179803427205
tRp359
sg9
I1
sg10
I117
sg11
g7
(F3.531231356783656
F9.8548229436744865
F0.41315314251698049
tRp360
sa(dp361
g3
F0
sg4
I1
sg5
I118
sg6
F0.20000000000000001
sS'v'
g7
(F0.22550415482212355
F-1.16177070704483
F0.68792079266566675
tRp362
sg9
I4
sg10
I118
sg11
g7
(F5.588375651902628
F5.3062508820190359
F8.578400667352609
tRp363
sa(dp364
g3
F1
sg4
I2
sg5
I119
sg6
F1
sS'v'
g7
(F-0.23599685325537173
F0.73825017831853812
F0.11690976365599046
tRp365
sg9
I1
sg10
I119
sg11
g7
(F2.63521801025639
F7.3830865088163788
F4.5029398511506438
tRp366
sa(dp367
g3
F0
sg4
I1
sg5
I120
sg6
F0.20000000000000001
sS'v'
g7
(F-0.11275450018392991
F0.098284276840857873
F-0.84152638922817191
tRp368
sg9
I4
sg10
I120
sg11
g7
(F2.304651050416517
F5.1448930563362438
F5.0521143996968405
tRp369
sa(dp370
g3
F1
sg4
I2
sg5
I121
sg6
F1
sS'v'
g7
(F0.52027411331903239
F-0.36299019471760346
F1.1858472798600057
tRp371
sg9
I1
sg10
I121
sg11
g7
(F0.61488177409225275
F9.2362011613529926
F9.626688070827365
tRp372
sa(dp373
g3
F0
sg4
I1
sg5
I122
sg6
F0.20000000000000001
sS'v'
g7
(F0.87970715521090981
F-0.63681462675962885
F-0.066750477436480923
tRp374
sg9
I4
sg10
I122
sg11
g7
(F1.6738475182923407
F1.0590279963189655
F6.2690385166791174
tRp375
sa(dp376
g3
F1
sg4
I2
sg5
I123
sg6
F1
sS'v'
g7
(F1.0435967744229462
F-0.19576447346264125
F-1.662021372825927
tRp377
sg9
I1
sg10
I123
sg11
g7
(F8.5672856330047207
F0.18865051448741038
F4.6465709373061772
tRp378
sa(dp379
g3
F0
sg4
I1
sg5
I124
sg6
F0.20000000000000001
sS'v'
g7
(F0.54766059968854264
F-0.69853819538905382
F-0.34227304667902375
tRp380
sg9
I4
sg10
I124
sg11
g7
(F9.7729328311520405
F2.3147852963287376
F4.4884735369339452
tRp381
sa(dp382
g3
F1
sg4
I2
sg5
I125
sg6
F1
sS'v'
g7
(F0.70337446025213413
F-0.99888609303265952
F0.54619257030359047
tRp383
sg9
I1
sg10
I125
sg11
g7
(F9.3828264231421876
F7.8998117467470594
F7.5900278494322828
tRp384
sa(dp385
g3
F0
sg4
I1
sg5
I126
sg6
F0.20000000000000001
sS'v'
g7
(F0.11201214518040732
F-0.27242304991801014
F-0.36891630737238862
tRp386
sg9
I4
sg10
I126
sg11
g7
(F5.3892951477721533
F8.5731167627391258
F4.4700971006961296
tRp387
sa(dp388
g3
F1
sg4
I2
sg5
I127
sg6
F1
sS'v'
g7
(F-0.47310120443068104
F0.23715318533067847
F0.75591936976460206
tRp389
sg9
I1
sg10
I127
sg11
g7
(F5.4190509655891868
F7.6577368641239145
F0.28006991765741335
tRp390
sa(dp391
g3
F0
sg4
I1
sg5
I128
sg6
F0.20000000000000001
sS'v'
g7
(F1.4470363323242204
F1.2162997217256586
F-0.33075886455325348
tRp392
sg9
I4
sg10
I128
sg11
g7
(F7.6569861855992967
F8.8335868333428014
F2.0711062817483268
tRp393
sa(dp394
g3
F1
sg4
I2
sg5
I129
sg6
F1
sS'v'
g7
(F-0.85706967654019639
F0.22188492324642986
F0.36227141341359864
tRp395
sg9
I1
sg10
I129
sg11
g7
(F1.3989101768067307
F9.6910733205572459
F6.4138020347599749
tRp396
sa(dp397
g3
F0
sg4
I1
sg5
I130
sg6
F0.20000000000000001
sS'v'
g7
(F0.13042383291417978
F0.19968674088345764
F1.2732785745664188
tRp398
sg9
I4
sg10
I130
sg11
g7
(F5.9328974690136143
F7.5540291310825936
F9.070454721986998
tRp399
sa(dp400
g3
F1
sg4
I2
sg5
I131
sg6
F1
sS'v'
g7
(F0.12055998408240724
F-0.50113695308887374
F0.73240303927790196
tRp401
sg9
I1
sg10
I131
sg11
g7
(F7.9594597566478322
F7.5465459025016726
F0.84680487276023186
tRp402
sa(dp403
g3
F0
sg4
I1
sg5
I132
sg6
F0.20000000000000001
sS'v'
g7
(F1.2425011884322763
F0.48796574819680366
F-0.51607369410386084
tRp404
sg9
I4
sg10
I132
sg11
g7
(F2.9384756639394971
F2.1354453707739145
F5.8541249987435258
tRp405
sa(dp406
g3
F1
sg4
I2
sg5
I133
sg6
F1
sS'v'
g7
(F-0.090201343881029711
F0.37865458852321277
F-0.32999960209579776
tRp407
sg9
I1
sg10
I133
sg11
g7
(F6.641549865134583
F9.1592129369906523
F2.5411836664306402
tRp408
sa(dp409
g3
F0
sg4
I1
sg5
I134
sg6
F0.20000000000000001
sS'v'
g7
(F-0.0017600191814439901
F0.78568210063511545
F1.0022612664300792
tRp410
sg9
I4
sg10
I134
sg11
g7
(F7.4456841501454036
F7.3077868695847874
F0.42156423075130384
tRp411
sa(dp412
g3
F1
sg4
I2
sg5
I135
sg6
F1
sS'v'
g7
(F-0.1169600387850432
F0.23277251784018252
F0.99350027322602241
tRp413
sg9
I1
sg10
I135
sg11
g7
(F4.0709020273414049
F3.028405525564803
F5.6224496650214135
tRp414
sa(dp415
g3
F0
sg4
I1
sg5
I136
sg6
F0.20000000000000001
sS'v'
g7
(F-0.52507818996949285
F0.60252854651400023
F-0.43384820359651383
tRp416
sg9
I4
sg10
I136
sg11
g7
(F0.41418383514910084
F1.3090755370711176
F0.40971029032251238
tRp417
sa(dp418
g3
F1
sg4
I2
sg5
I137
sg6
F1
sS'v'
g7
(F1.0450401401771032
F0.71371082621867266
F-0.034920763029798421
tRp419
sg9
I1
sg10
I137
sg11
g7
(F2.816021443849583
F2.4619865672401908
F5.9877230108751771
tRp420
sa(dp421
g3
F0
sg4
I1
sg5
I138
sg6
F0.20000000000000001
sS'v'
g7
(F0.91926108932332751
F-0.90974597470937113
F-0.51351013916809918
tRp422
sg9
I4
sg10
I138
sg11
g7
(F1.4199022448985954
F0.15829880095726814
F9.1085593045146904
tRp423
sa(dp424
g3
F1
sg4
I2
sg5
I139
sg6
F1
sS'v'
g7
(F0.084941061971745155
F-0.017053880087100487
F-1.2090374596743534
tRp425
sg9
I1
sg10
I139
sg11
g7
(F9.0027798919095172
F9.0640356010154282
F5.7225728788977062
tRp426
sa(dp427
g3
F0
sg4
I1
sg5
I140
sg6
F0.20000000000000001
sS'v'
g7
(F-0.20251235987437072
F-0.61457262257052048
F-0.55896615298018115
tRp428
sg9
I4
sg10
I140
sg11
g7
(F8.2976766425243245
F7.1771784830989436
F1.923759363113037
tRp429
sa(dp430
g3
F1
sg4
I2
sg5
I141
sg6
F1
sS'v'
g7
(F-0.58039294100845229
F-0.014133080647673825
F0.83006862147878446
tRp431
sg9
I1
sg10
I141
sg11
g7
(F7.0119060332427532
F6.429834387564215
F2.6595589334708629
tRp432
sa(dp433
g3
F0
sg4
I1
sg5
I142
sg6
F0.20000000000000001
sS'v'
g7
(F0.15035763822520379
F-0.32111653392466966
F0.6502424943978784
tRp434
sg9
I4
sg10
I142
sg11
g7
(F3.6095966437990743
F1.0611006155272187
F2.2270897536449867
tRp435
sa(dp436
g3
F1
sg4
I2
sg5
I143
sg6
F1
sS'v'
g7
(F-0.18364940516286524
F-0.12264271994747659
F-0.73417560926997616
tRp437
sg9
I1
sg10
I143
sg11
g7
(F1.8287601449277899
F5.3127744920256301
F0.20940309800650522
tRp438
sa(dp439
g3
F0
sg4
I1
sg5
I144
sg6
F0.20000000000000001
sS'v'
g7
(F-0.39905546997964525
F0.88265729216303523
F-0.2298218680035739
tRp440
sg9
I4
sg10
I144
sg11
g7
(F1.6561040593189154
F4.6240243947700179
F9.8898070169962775
tRp441
sa(dp442
g3
F1
sg4
I2
sg5
I145
sg6
F1
sS'v'
g7
(F0.025114394399580992
F1.4517289363189736
F0.078151012990924834
tRp443
sg9
I1
sg10
I145
sg11
g7
(F0.62953205231822751
F5.621227222640881
F9.2823300960314139
tRp444
sa(dp445
g3
F0
sg4
I1
sg5
I146
sg6
F0.20000000000000001
sS'v'
g7
(F0.094502520430332193
F-0.098664829584675248
F1.0125507859305982
tRp446
sg9
I4
sg10
I146
sg11
g7
(F0.47065277028875852
F0.91942549453836542
F3.7070914209377461
tRp447
sa(dp448
g3
F1
sg4
I2
sg5
I147
sg6
F1
sS'v'
g7
(F1.4630099469175795
F0.39572022066622237
F-0.17597063011757325
tRp449
sg9
I1
sg10
I147
sg11
g7
(F2.7748056558087906
F1.5050247773512218
F3.7683902555478364
tRp450
sa(dp451
g3
F0
sg4
I1
sg5
I148
sg6
F0.20000000000000001
sS'v'
g7
(F-0.74266488527394403
F-0.48524937131044477
F-1.0659509587639318
tRp452
sg9
I4
sg10
I148
sg11
g7
(F7.2630678795505856
F9.4699655829303317
F8.7123383575433717
tRp453
sa(dp454
g3
F1
sg4
I2
sg5
I149
sg6
F1
sS'v'
g7
(F-0.69657678448326765
F1.0674455802962386
F-0.57824473147018884
tRp455
sg9
I1
sg10
I149
sg11
g7
(F0.30496590825527431
F3.5331170689576341
F9.5172888914274036
tRp456
sa(dp457
g3
F0
sg4
I1
sg5
I150
sg6
F0.20000000000000001
sS'v'
g7
(F-0.50607669322936721
F0.015372702729868527
F1.1430167809890877
tRp458
sg9
I4
sg10
I150
sg11
g7
(F9.9110157127908405
F9.8736493727924923
F2.1502767427592486
tRp459
sa(dp460
g3
F1
sg4
I2
sg5
I151
sg6
F1
sS'v'
g7
(F0.66191144336232566
F-0.76944835143452173
F0.25308457556707314
tRp461
sg9
I1
sg10
I151
sg11
g7
(F7.3784665420823581
F8.3784613902314593
F4.2185304361611102
tRp462
sa(dp463
g3
F0
sg4
I1
sg5
I152
sg6
F0.20000000000000001
sS'v'
g7
(F-0.59831771426727021
F0.088912052948145942
F-0.11578474529293846
tRp464
sg9
I4
sg10
I152
sg11
g7
(F9.3125852168183183
F6.1109677174034616
F9.1464258731370087
tRp465
sa(dp466
g3
F1
sg4
I2
sg5
I153
sg6
F1
sS'v'
g7
(F0.29163051946363705
F1.0842367472257766
F-0.29349840593892118
tRp467
sg9
I1
sg10
I153
sg11
g7
(F0.10380996251134246
F1.5319313577070086
F2.8738899235526412
tRp468
sa(dp469
g3
F0
sg4
I1
sg5
I154
sg6
F0.20000000000000001
sS'v'
g7
(F-0.17457140018791598
F-0.46022042715659017
F-0.27142121869543995
tRp470
sg9
I4
sg10
I154
sg11
g7
(F6.3954324924209498
F0.46854865473519225
F6.3475904559964302
tRp471
sa(dp472
g3
F1
sg4
I2
sg5
I155
sg6
F1
sS'v'
g7
(F-0.2118826177812452
F-0.16562660087940417
F0.43191748106402772
tRp473
sg9
I1
sg10
I155
sg11
g7
(F9.196512564008545
F1.3613637496613913
F2.3036861459733875
tRp474
sa(dp475
g3
F0
sg4
I1
sg5
I156
sg6
F0.20000000000000001
sS'v'
g7
(F0.69644276826257567
F0.27200007501391904
F-1.0601711575369899
tRp476
sg9
I4
sg10
I156
sg11
g7
(F0.14383581455648387
F9.086255502489653
F1.5564082447576526
tRp477
sa(dp478
g3
F1
sg4
I2
sg5
I157
sg6
F1
sS'v'
g7
(F-1.2413124547882075
F1.0284295914014869
F-0.85237770955722003
tRp479
sg9
I1
sg10
I157
sg11
g7
(F4.6696987053616548
F7.2014077583963223
F9.4103611496732071
tRp480
sa(dp481
g3
F0
sg4
I1
sg5
I158
sg6
F0.20000000000000001
sS'v'
g7
(F-0.14622849802003321
F0.82910491431930289
F0.46042443364646807
tRp482
sg9
I4
sg10
I158
sg11
g7
(F0.19106538440464488
F9.8529130122477717
F2.256031411349376
tRp483
sa(dp484
g3
F1
sg4
I2
sg5
I159
sg6
F1
sS'v'
g7
(F0.12808961257292079
F-0.55843723909407927
F-0.4023614803106747
tRp485
sg9
I1
sg10
I159
sg11
g7
(F0.966775815155833
F5.5038139624878371
F7.5131227365923916
tRp486
sa(dp487
g3
F0
sg4
I1
sg5
I160
sg6
F0.20000000000000001
sS'v'
g7
(F-1.0687437043948733
F0.24847685514427961
F-0.865602224388756
tRp488
sg9
I4
sg10
I160
sg11
g7
(F5.6445138862574886
F2.679307636369344
F0.26399406620096677
tRp489
sa(dp490
g3
F1
sg4
I2
sg5
I161
sg6
F1
sS'v'
g7
(F0.95496370511566653
F0.59708281958665965
F0.7398336451740718
tRp491
sg9
I1
sg10
I161
sg11
g7
(F2.0301599907258021
F7.5530800355625649
F1.4931592039212214
tRp492
sa(dp493
g3
F0
sg4
I1
sg5
I162
sg6
F0.20000000000000001
sS'v'
g7
(F-0.46415298543676708
F-0.56462957943897074
F-0.034264050599902993
tRp494
sg9
I4
sg10
I162
sg11
g7
(F1.7548278540665532
F5.2058160831015279
F6.9658818376098353
tRp495
sa(dp496
g3
F1
sg4
I2
sg5
I163
sg6
F1
sS'v'
g7
(F-0.10936481213600323
F0.1427157110837608
F1.8151397570544452
tRp497
sg9
I1
sg10
I163
sg11
g7
(F1.3984014091397947
F7.2194396453381309
F4.9577587742832367
tRp498
sa(dp499
g3
F0
sg4
I1
sg5
I164
sg6
F0.20000000000000001
sS'v'
g7
(F0.23082456894081532
F-0.020747504519304103
F-0.1948870150927563
tRp500
sg9
I4
sg10
I164
sg11
g7
(F4.9065689973318838
F0.064444528187781458
F5.2712295426724403
tRp501
sa(dp502
g3
F1
sg4
I2
sg5
I165
sg6
F1
sS'v'
g7
(F-0.026948259735208993
F0.43495853345221186
F0.22810568987896612
tRp503
sg9
I1
sg10
I165
sg11
g7
(F2.6921654283460099
F7.6970701402952013
F8.4531670355495923
tRp504
sa(dp505
g3
F0
sg4
I1
sg5
I166
sg6
F0.20000000000000001
sS'v'
g7
(F-0.7196743592837247
F0.16626011302845745
F0.57756377527789571
tRp506
sg9
I4
sg10
I166
sg11
g7
(F6.7617745272933973
F7.0212688072447449
F2.7199602302922545
tRp507
sa(dp508
g3
F1
sg4
I2
sg5
I167
sg6
F1
sS'v'
g7
(F-0.82165849352079112
F-1.0785797121343315
F0.2324189506689211
tRp509
sg9
I1
sg10
I167
sg11
g7
(F5.275567924143882
F0.73093726766039313
F9.515953102131574
tRp510
sa(dp511
g3
F0
sg4
I1
sg5
I168
sg6
F0.20000000000000001
sS'v'
g7
(F-1.9374340366349003
F-1.2917722632826427
F0.074722649104848507
tRp512
sg9
I4
sg10
I168
sg11
g7
(F9.3876540518209772
F7.7585439967930583
F4.3567001854456366
tRp513
sa(dp514
g3
F1
sg4
I2
sg5
I169
sg6
F1
sS'v'
g7
(F-0.76609879879911047
F-0.78756710193965762
F0.67163330482346251
tRp515
sg9
I1
sg10
I169
sg11
g7
(F4.7969037492561268
F7.7193161100755603
F1.4773598398188246
tRp516
sa(dp517
g3
F0
sg4
I1
sg5
I170
sg6
F0.20000000000000001
sS'v'
g7
(F-1.0319306024888957
F1.2922764742916291
F0.41113893615600755
tRp518
sg9
I4
sg10
I170
sg11
g7
(F2.3908875165244083
F3.7140281277255789
F2.8781265749026286
tRp519
sa(dp520
g3
F1
sg4
I2
sg5
I171
sg6
F1
sS'v'
g7
(F1.2574784345814063
F-0.070578554563144255
F-0.24607698861226324
tRp521
sg9
I1
sg10
I171
sg11
g7
(F1.3997881920645001
F8.3947099275713004
F2.4678036346582197
tRp522
sa(dp523
g3
F0
sg4
I1
sg5
I172
sg6
F0.20000000000000001
sS'v'
g7
(F1.0728856887744347
F-0.98130127305824633
F0.3595864858766647
tRp524
sg9
I4
sg10
I172
sg11
g7
(F3.7865809802644783
F5.6570633818440168
F6.118822701189865
tRp525
sa(dp526
g3
F1
sg4
I2
sg5
I173
sg6
F1
sS'v'
g7
(F0.16465210578830453
F0.006870202266735125
F1.422697191597855
tRp527
sg9
I1
sg10
I173
sg11
g7
(F5.3128914774368798
F0.89201239635774654
F2.7183924145405514
tRp528
sa(dp529
g3
F0
sg4
I1
sg5
I174
sg6
F0.20000000000000001
sS'v'
g7
(F-0.7587037327029077
F-0.75530595855441174
F1.1399158241371845
tRp530
sg9
I4
sg10
I174
sg11
g7
(F1.6272477495553983
F8.1187841582196505
F6.9422007459364101
tRp531
sa(dp532
g3
F1
sg4
I2
sg5
I175
sg6
F1
sS'v'
g7
(F1.2585132044090508
F0.15194177719153329
F0.41081699434769225
tRp533
sg9
I1
sg10
I175
sg11
g7
(F2.6060865896150962
F3.9709214494857439
F0.89665167240071586
tRp534
sa(dp535
g3
F0
sg4
I1
sg5
I176
sg6
F0.20000000000000001
sS'v'
g7
(F-0.17563042798445636
F1.0682869909524875
F-0.38050703030556116
tRp536
sg9
I4
sg10
I176
sg11
g7
(F0.19180533039581404
F1.5314867671990882
F7.4426352782854899
tRp537
sa(dp538
g3
F1
sg4
I2
sg5
I177
sg6
F1
sS'v'
g7
(F0.37734105110725102
F-1.0860119094546696
F-0.67578488659753821
tRp539
sg9
I1
sg10
I177
sg11
g7
(F7.8890049557246895
F7.2730669226975158
F5.3024305774818528
tRp540
sa(dp541
g3
F0
sg4
I1
sg5
I178
sg6
F0.20000000000000001
sS'v'
g7
(F0.18596288777429912
F-0.47070313502895933
F0.19841465954783702
tRp542
sg9
I4
sg10
I178
sg11
g7
(F6.6595883896978521
F2.581473060781204
F8.8633875156190634
tRp543
sa(dp544
g3
F1
sg4
I2
sg5
I179
sg6
F1
sS'v'
g7
(F1.2234936545572639
F-1.8270805339938743
F-0.32693039897385456
tRp545
sg9
I1
sg10
I179
sg11
g7
(F0.81952521948571477
F3.914609573602351
F2.3017438878438119
tRp546
sa(dp547
g3
F0
sg4
I1
sg5
I180
sg6
F0.20000000000000001
sS'v'
g7
(F0.39786336303031278
F0.67484129068612719
F0.67459883151881439
tRp548
sg9
I4
sg10
I180
sg11
g7
(F1.538388990042824
F2.5784748905662163
F7.2155539386514675
tRp549
sa(dp550
g3
F1
sg4
I2
sg5
I181
sg6
F1
sS'v'
g7
(F-0.9740446823357376
F-0.20196140321065489
F-0.57655248206255805
tRp551
sg9
I1
sg10
I181
sg11
g7
(F6.1846203938306221
F0.21618835784614465
F9.1712551748737159
tRp552
sa(dp553
g3
F0
sg4
I1
sg5
I182
sg6
F0.20000000000000001
sS'v'
g7
(F-0.31801048053755759
F0.95134475199659596
F1.3991557866766142
tRp554
sg9
I4
sg10
I182
sg11
g7
(F3.0986541317881402
F7.2947345265301466
F2.4720121215170998
tRp555
sa(dp556
g3
F1
sg4
I2
sg5
I183
sg6
F1
sS'v'
g7
(F0.058900827578152085
F-0.74739241313800453
F-0.48285097101330604
tRp557
sg9
I1
sg10
I183
sg11
g7
(F4.3581398559848115
F9.9561868084237801
F5.6880317506568758
tRp558
sa(dp559
g3
F0
sg4
I1
sg5
I184
sg6
F0.20000000000000001
sS'v'
g7
(F1.0281989672487066
F-0.19741718473709371
F-0.19550066630916613
tRp560
sg9
I4
sg10
I184
sg11
g7
(F0.5413070515544659
F3.4506142301125893
F6.2833914302846248
tRp561
sa(dp562
g3
F1
sg4
I2
sg5
I185
sg6
F1
sS'v'
g7
(F-0.54932915946046179
F-1.0510005264877831
F-0.94210234194502285
tRp563
sg9
I1
sg10
I185
sg11
g7
(F8.6213795140910037
F7.1092582519467742
F3.3758671602121271
tRp564
sa(dp565
g3
F0
sg4
I1
sg5
I186
sg6
F0.20000000000000001
sS'v'
g7
(F0.030085560529305611
F0.68941548939634945
F0.19318633582168118
tRp566
sg9
I4
sg10
I186
sg11
g7
(F3.6238271610473944
F0.39319620452123361
F0.98452649431005734
tRp567
sa(dp568
g3
F1
sg4
I2
sg5
I187
sg6
F1
sS'v'
g7
(F0.37578040933520118
F0.50030022475394842
F-0.95619734187413163
tRp569
sg9
I1
sg10
I187
sg11
g7
(F2.8542103617349182
F0.20069184107622545
F2.1193318909501442
tRp570
sa(dp571
g3
F0
sg4
I1
sg5
I188
sg6
F0.20000000000000001
sS'v'
g7
(F-0.28479880442676891
F-1.5795092339701071
F-0.72658299545577898
tRp572
sg9
I4
sg10
I188
sg11
g7
(F7.2517456933497755
F5.0511329814102197
F8.2275656501649443
tRp573
sa(dp574
g3
F1
sg4
I2
sg5
I189
sg6
F1
sS'v'
g7
(F1.120643158886399
F-0.07228656657395692
F-0.47047509063615356
tRp575
sg9
I1
sg10
I189
sg11
g7
(F7.2461165480946432
F8.2151948975663256
F1.9535943695147258
tRp576
sa(dp577
g3
F0
sg4
I1
sg5
I190
sg6
F0.20000000000000001
sS'v'
g7
(F-0.80303360593587181
F-0.22447028860202126
F0.1806985075566977
tRp578
sg9
I4
sg10
I190
sg11
g7
(F3.6459067009772705
F1.8304536038110797
F9.7708836964948986
tRp579
sa(dp580
g3
F1
sg4
I2
sg5
I191
sg6
F1
sS'v'
g7
(F0.37466744451505196
F-0.39034884349858873
F0.47956231727345655
tRp581
sg9
I1
sg10
I191
sg11
g7
(F7.9751713548318532
F2.0507936469261758
F3.1753494300506309
tRp582
sa(dp583
g3
F0
sg4
I1
sg5
I192
sg6
F0.20000000000000001
sS'v'
g7
(F-0.81885887061711293
F0.1154740910231172
F0.33846418283778107
tRp584
sg9
I4
sg10
I192
sg11
g7
(F6.7566757115598861
F5.0360153603255853
F6.7559180567383024
tRp585
sa(dp586
g3
F1
sg4
I2
sg5
I193
sg6
F1
sS'v'
g7
(F0.9557610588249208
F-0.51964171620582356
F-0.37179896191555539
tRp587
sg9
I1
sg10
I193
sg11
g7
(F0.058438178189463216
F7.3221688798185971
F5.1897025761527891
tRp588
sa(dp589
g3
F0
sg4
I1
sg5
I194
sg6
F0.20000000000000001
sS'v'
g7
(F0.23910920185830423
F-0.67468148233805958
F0.39553514651873517
tRp590
sg9
I4
sg10
I194
sg11
g7
(F0.43421642555821272
F9.1931565059119826
F6.6580544280649212
tRp591
sa(dp592
g3
F1
sg4
I2
sg5
I195
sg6
F1
sS'v'
g7
(F0.44300683948639108
F0.96442366846761962
F-0.50799099076148502
tRp593
sg9
I1
sg10
I195
sg11
g7
(F3.8697164034267959
F5.2173608432516838
F8.8377483084761117
tRp594
sa(dp595
g3
F0
sg4
I1
sg5
I196
sg6
F0.20000000000000001
sS'v'
g7
(F0.47263823344051986
F-0.9958476380340523
F0.64074307026412591
tRp596
sg9
I4
sg10
I196
sg11
g7
(F7.2424641770266662
F0.24794624435090848
F4.4272543880165678
tRp597
sa(dp598
g3
F1
sg4
I2
sg5
I197
sg6
F1
sS'v'
g7
(F-0.18876731440640157
F-0.078128363962919042
F-0.53545887620786781
tRp599
sg9
I1
sg10
I197
sg11
g7
(F6.7921611953816488
F7.4302052604111024
F9.0823559994975653
tRp600
sa(dp601
g3
F0
sg4
I1
sg5
I198
sg6
F0.20000000000000001
sS'v'
g7
(F0.20599615970638863
F-0.63984351329971201
F0.47597137466153777
tRp602
sg9
I4
sg10
I198
sg11
g7
(F4.0370013359278571
F4.0072677025117924
F8.8149742267141331
tRp603
sa(dp604
g3
F1
sg4
I2
sg5
I199
sg6
F1
sS'v'
g7
(F-0.69850281651393364
F0.026262398286069782
F0.088306961294643119
tRp605
sg9
I1
sg10
I199
sg11
g7
(F3.0681080648546772
F3.0679461299126807
F8.211476303630743
tRp606
sa(dp607
g3
F0
sg4
I1
sg5
I200
sg6
F0.20000000000000001
sS'v'
g7
(F0.84376956784580481
F-0.84456285572971135
F1.0087062699579337
tRp608
sg9
I4
sg10
I200
sg11
g7
(F7.298150226429347
F7.4452977715434159
F0.44422966852577089
tRp609
sa.