(lp1
(dp2
S'lambda_adr'
p3
F1
sS'state'
p4
I2
sS'res_id'
p5
I1
sS'mass'
p6
F1
sS'v'
c_espressopp
Real3D
p7
(F-0.40511878780153515
F0.56757881089303597
F0.068795388370006219
tRp8
sS'type'
p9
I1
sS'pid'
p10
I1
sS'pos'
p11
g7
(F1.992885446679872
F2.9071268268082511
F4.0988763711256819
tRp12
sa(dp13
g3
F0
sg4
I1
sg5
I2
sg6
F0.20000000000000001
sS'v'
g7
(F-0.018726542904244414
F-0.026770396021528208
F0.035576023420279101
tRp14
sg9
I4
sg10
I2
sg11
g7
(F2.0704732060032613
F3.018041855499392
F3.9514778920294544
tRp15
sa(dp16
g3
F1
sg4
I2
sg5
I3
sg6
F1
sS'v'
g7
(F1.6901239335346374
F1.5514962476940006
F-0.99514722948370471
tRp17
sg9
I1
sg10
I3
sg11
g7
(F0.32350435738728167
F2.9794446131026984
F4.3140541325245323
tRp18
sa(dp19
g3
F0
sg4
I1
sg5
I4
sg6
F0.20000000000000001
sS'v'
g7
(F-0.1845237318285998
F0.40881945437086997
F0.17413604236588895
tRp20
sg9
I4
sg10
I4
sg11
g7
(F0.24726460660939376
F3.1483567254121265
F4.3860019971154944
tRp21
sa(dp22
g3
F1
sg4
I2
sg5
I5
sg6
F1
sS'v'
g7
(F-0.53399565097584989
F-0.62962139078921919
F0.64037351830043299
tRp23
sg9
I1
sg10
I5
sg11
g7
(F2.8330062293251039
F2.1872853843313718
F1.6693420877862981
tRp24
sa(dp25
g3
F0
sg4
I1
sg5
I6
sg6
F0.20000000000000001
sS'v'
g7
(F-0.08821944721107057
F-0.069541029506066249
F0.026894751556688128
tRp26
sg9
I4
sg10
I6
sg11
g7
(F2.9859779740026919
F2.3078689171749516
F1.62270682539961
tRp27
sa(dp28
g3
F1
sg4
I2
sg5
I7
sg6
F1
sS'v'
g7
(F-0.35834210702813118
F-0.61965211139573939
F-0.36689389141422768
tRp29
sg9
I1
sg10
I7
sg11
g7
(F1.2070828595583627
F1.0462772995644369
F3.9774703109444935
tRp30
sa(dp31
g3
F0
sg4
I1
sg5
I8
sg6
F0.20000000000000001
sS'v'
g7
(F-0.22737573276131628
F-0.19440140177090035
F-0.21312634805472641
tRp32
sg9
I4
sg10
I8
sg11
g7
(F1.3314581970506365
F1.1526155602952251
F4.0940511841356901
tRp33
sa(dp34
g3
F1
sg4
I2
sg5
I9
sg6
F1
sS'v'
g7
(F-0.022683875919057482
F0.16683468934319845
F-0.084675886839397335
tRp35
sg9
I1
sg10
I9
sg11
g7
(F0.034758837741230043
F0.21482172614335432
F1.0538950102396774
tRp36
sa(dp37
g3
F0
sg4
I1
sg5
I10
sg6
F0.20000000000000001
sS'v'
g7
(F0.27029300178851212
F-0.45146434536567209
F-0.010385715778426475
tRp38
sg9
I4
sg10
I10
sg11
g7
(F0.13679854062503133
F0.044387096467711114
F1.0499742451985778
tRp39
sa(dp40
g3
F1
sg4
I2
sg5
I11
sg6
F1
sS'v'
g7
(F-0.016664009671494392
F0.87250158608479567
F-0.26717228205560273
tRp41
sg9
I1
sg10
I11
sg11
g7
(F4.6412630780592243
F3.3029244028299538
F1.3922209204506433
tRp42
sa(dp43
g3
F0
sg4
I1
sg5
I12
sg6
F0.20000000000000001
sS'v'
g7
(F-0.30354339173917472
F0.058517760130987945
F0.14426038162352997
tRp44
sg9
I4
sg10
I12
sg11
g7
(F4.4640617547279211
F3.3370856621944962
F1.4764366577180648
tRp45
sa(dp46
g3
F1
sg4
I2
sg5
I13
sg6
F1
sS'v'
g7
(F-0.46126704244702954
F0.23177765564873573
F-0.44292141978771382
tRp47
sg9
I1
sg10
I13
sg11
g7
(F2.3908743848457799
F1.433032512385811
F0.89108639011389212
tRp48
sa(dp49
g3
F0
sg4
I1
sg5
I14
sg6
F0.20000000000000001
sS'v'
g7
(F0.0069725890374336017
F0.0011457411392690096
F-0.0050423958214599598
tRp50
sg9
I4
sg10
I14
sg11
g7
(F2.5515017469785608
F1.4594269228264307
F0.77492484161560471
tRp51
sa(dp52
g3
F1
sg4
I2
sg5
I15
sg6
F1
sS'v'
g7
(F0.40120913695388477
F-0.47037267506446578
F0.59961708423129412
tRp53
sg9
I1
sg10
I15
sg11
g7
(F2.6193316755795339
F0.22140593786806242
F1.2319119891589112
tRp54
sa(dp55
g3
F0
sg4
I1
sg5
I16
sg6
F0.20000000000000001
sS'v'
g7
(F0.048016410435076907
F0.062461973188375972
F-0.035249992490134607
tRp56
sg9
I4
sg10
I16
sg11
g7
(F2.7304749936090813
F0.36598631961515982
F1.1503190277032136
tRp57
sa(dp58
g3
F1
sg4
I2
sg5
I17
sg6
F1
sS'v'
g7
(F1.4902806249135934
F-0.45334603897297654
F-1.002781297550575
tRp59
sg9
I1
sg10
I17
sg11
g7
(F1.0230588875448541
F0.61619802737372498
F0.99847729792436457
tRp60
sa(dp61
g3
F0
sg4
I1
sg5
I18
sg6
F0.20000000000000001
sS'v'
g7
(F0.021310260158373041
F-0.092704087485220577
F-0.019106884398943563
tRp62
sg9
I4
sg10
I18
sg11
g7
(F0.97907684670408757
F0.80752910130615374
F1.037911812741583
tRp63
sa(dp64
g3
F1
sg4
I2
sg5
I19
sg6
F1
sS'v'
g7
(F-0.28016318635259779
F-0.31597606065514855
F0.17114811320725526
tRp65
sg9
I1
sg10
I19
sg11
g7
(F0.26158460284176988
F0.55525265237749644
F0.080384266167351739
tRp66
sa(dp67
g3
F0
sg4
I1
sg5
I20
sg6
F0.20000000000000001
sS'v'
g7
(F-0.086954712099542211
F-0.10406727859227229
F0.043870411321092324
tRp68
sg9
I4
sg10
I20
sg11
g7
(F0.38381520285111509
F0.70153806459427837
F0.018716455775485509
tRp69
sa(dp70
g3
F1
sg4
I2
sg5
I21
sg6
F1
sS'v'
g7
(F0.32946748245772067
F1.8322917493704711
F-0.034908990217662562
tRp71
sg9
I1
sg10
I21
sg11
g7
(F3.0828360426298693
F1.1296864068160206
F3.1227004948525887
tRp72
sa(dp73
g3
F0
sg4
I1
sg5
I22
sg6
F0.20000000000000001
sS'v'
g7
(F-0.18045561078238323
F0.12801538876285368
F0.12236807498835517
tRp74
sg9
I4
sg10
I22
sg11
g7
(F3.2260322906095249
F1.0281028468755991
F3.0255982261292478
tRp75
sa(dp76
g3
F1
sg4
I2
sg5
I23
sg6
F1
sS'v'
g7
(F-0.73574922688289668
F-1.1375018774061436
F-1.5233879141197528
tRp77
sg9
I1
sg10
I23
sg11
g7
(F0.78889333716206522
F4.9582390265447351
F1.740221106496026
tRp78
sa(dp79
g3
F0
sg4
I1
sg5
I24
sg6
F0.20000000000000001
sS'v'
g7
(F-0.037580777989720621
F-0.11778032726281024
F-0.4078343300052929
tRp80
sg9
I4
sg10
I24
sg11
g7
(F0.80662417333957126
F0.013808490492532879
F1.9326397864622771
tRp81
sa(dp82
g3
F1
sg4
I2
sg5
I25
sg6
F1
sS'v'
g7
(F0.88049729575566682
F-1.3030649268562697
F-0.26075263781577068
tRp83
sg9
I1
sg10
I25
sg11
g7
(F2.5255731657090799
F3.3432539790965139
F1.9772836517588794
tRp84
sa(dp85
g3
F0
sg4
I1
sg5
I26
sg6
F0.20000000000000001
sS'v'
g7
(F-0.16366992858929422
F-0.032125443587526691
F0.23894951214788815
tRp86
sg9
I4
sg10
I26
sg11
g7
(F2.4136506787991805
F3.321285621375639
F2.1406846129251091
tRp87
sa(dp88
g3
F1
sg4
I2
sg5
I27
sg6
F1
sS'v'
g7
(F-0.15468956608503859
F1.6142471797442008
F-0.3391545580085103
tRp89
sg9
I1
sg10
I27
sg11
g7
(F4.2166862451482654
F0.79307176320991291
F0.60540255274051158
tRp90
sa(dp91
g3
F0
sg4
I1
sg5
I28
sg6
F0.20000000000000001
sS'v'
g7
(F-0.38077805246940721
F0.84858170634430452
F-0.33167167846105594
tRp92
sg9
I4
sg10
I28
sg11
g7
(F4.2947604575695451
F0.61907972777541243
F0.6734080612259864
tRp93
sa(dp94
g3
F1
sg4
I2
sg5
I29
sg6
F1
sS'v'
g7
(F1.7076998498634677
F-0.58593492325947283
F-0.31811240730348356
tRp95
sg9
I1
sg10
I29
sg11
g7
(F4.3371878449851513
F1.9137367314553131
F3.2383174283125724
tRp96
sa(dp97
g3
F0
sg4
I1
sg5
I30
sg6
F0.20000000000000001
sS'v'
g7
(F0.37803491200740352
F-0.85209438544914151
F0.12362703296155317
tRp98
sg9
I4
sg10
I30
sg11
g7
(F4.4166457459865311
F1.7346378462139322
F3.2643021832496006
tRp99
sa(dp100
g3
F1
sg4
I2
sg5
I31
sg6
F1
sS'v'
g7
(F-0.8988292539672913
F-0.076860034525913556
F0.33296852680377642
tRp101
sg9
I1
sg10
I31
sg11
g7
(F3.0641012662157916
F1.3297411207273346
F0.099836913333651259
tRp102
sa(dp103
g3
F0
sg4
I1
sg5
I32
sg6
F0.20000000000000001
sS'v'
g7
(F0.39765684539722501
F-0.10249548153012868
F-0.014117201791387084
tRp104
sg9
I4
sg10
I32
sg11
g7
(F3.2566630463845954
F1.2801085980858973
F0.093000784295720978
tRp105
sa(dp106
g3
F1
sg4
I2
sg5
I33
sg6
F1
sS'v'
g7
(F-1.2244099061627951
F0.32129780075885472
F0.79766031181191965
tRp107
sg9
I1
sg10
I33
sg11
g7
(F3.6651552480038263
F4.2580754333776074
F1.8618713038505534
tRp108
sa(dp109
g3
F0
sg4
I1
sg5
I34
sg6
F0.20000000000000001
sS'v'
g7
(F-0.13105988285273021
F-0.18074314687575518
F-0.34174494680395734
tRp110
sg9
I4
sg10
I34
sg11
g7
(F3.6012707113608866
F4.1699730183730157
F1.6952893025437967
tRp111
sa(dp112
g3
F1
sg4
I2
sg5
I35
sg6
F1
sS'v'
g7
(F-0.34289173028352293
F-0.32954285121089522
F-0.42189046266574431
tRp113
sg9
I1
sg10
I35
sg11
g7
(F3.6208862397193262
F4.2168912959099902
F4.5443624508576539
tRp114
sa(dp115
g3
F0
sg4
I1
sg5
I36
sg6
F0.20000000000000001
sS'v'
g7
(F-0.66791852762021964
F0.22544107769817681
F0.066322792593395033
tRp116
sg9
I4
sg10
I36
sg11
g7
(F3.4338923269324555
F4.2800069417236681
F4.562930521634458
tRp117
sa(dp118
g3
F1
sg4
I2
sg5
I37
sg6
F1
sS'v'
g7
(F-0.053191679346994071
F0.57720824745785526
F-0.31697039351678286
tRp119
sg9
I1
sg10
I37
sg11
g7
(F3.0279255452290941
F1.0752008496224603
F1.9204846025751459
tRp120
sa(dp121
g3
F0
sg4
I1
sg5
I38
sg6
F0.20000000000000001
sS'v'
g7
(F-0.053738091852134261
F0.42744360350820121
F-0.10154765499784783
tRp122
sg9
I4
sg10
I38
sg11
g7
(F3.0037777796617262
F1.2672770394356094
F1.8748531169326836
tRp123
sa(dp124
g3
F1
sg4
I2
sg5
I39
sg6
F1
sS'v'
g7
(F-0.21113574775885391
F-0.59398358257773376
F0.83783684208111187
tRp125
sg9
I1
sg10
I39
sg11
g7
(F3.6850931242920382
F0.35396578743669221
F1.4646777697308773
tRp126
sa(dp127
g3
F0
sg4
I1
sg5
I40
sg6
F0.20000000000000001
sS'v'
g7
(F-0.023423371812017167
F-0.040090247522128794
F-0.011170393140906993
tRp128
sg9
I4
sg10
I40
sg11
g7
(F3.7832471945112838
F0.521961283643397
F1.5114865537747977
tRp129
sa(dp130
g3
F1
sg4
I2
sg5
I41
sg6
F1
sS'v'
g7
(F-1.3056130003301065
F0.47383606876964762
F-0.20087927204603601
tRp131
sg9
I1
sg10
I41
sg11
g7
(F1.5016694165213011
F1.9566497847702073
F3.3981034717644683
tRp132
sa(dp133
g3
F0
sg4
I1
sg5
I42
sg6
F0.20000000000000001
sS'v'
g7
(F-0.17933340796342989
F0.56235102148653748
F-0.28226353016458444
tRp134
sg9
I4
sg10
I42
sg11
g7
(F1.4472985282441506
F2.1271452039395182
F3.3125258928985031
tRp135
sa(dp136
g3
F1
sg4
I2
sg5
I43
sg6
F1
sS'v'
g7
(F0.075164296241560707
F0.27806596767877162
F0.6303502743937005
tRp137
sg9
I1
sg10
I43
sg11
g7
(F4.6567279350724329
F1.7070697402509869
F0.10240495627417583
tRp138
sa(dp139
g3
F0
sg4
I1
sg5
I44
sg6
F0.20000000000000001
sS'v'
g7
(F0.37077965750893588
F-0.011706690828923411
F0.047026726019520744
tRp140
sg9
I4
sg10
I44
sg11
g7
(F4.4574877273917108
F1.7133603860962285
F0.077134921985825153
tRp141
sa(dp142
g3
F1
sg4
I2
sg5
I45
sg6
F1
sS'v'
g7
(F-0.29277151287584058
F-0.52517369365289257
F-0.12045335710774487
tRp143
sg9
I1
sg10
I45
sg11
g7
(F0.9789774077556237
F2.8988800611393546
F3.5375256520887621
tRp144
sa(dp145
g3
F0
sg4
I1
sg5
I46
sg6
F0.20000000000000001
sS'v'
g7
(F-0.2642103646382038
F0.2071273018313434
F-0.053328185549040792
tRp146
sg9
I4
sg10
I46
sg11
g7
(F0.8241882872932792
F3.0202267498588338
F3.5062830361970949
tRp147
sa(dp148
g3
F1
sg4
I2
sg5
I47
sg6
F1
sS'v'
g7
(F0.61678515215522844
F-1.1043830150757976
F0.11591709164444086
tRp149
sg9
I1
sg10
I47
sg11
g7
(F3.4068512671705777
F2.0295872183913497
F2.668775909086218
tRp150
sa(dp151
g3
F0
sg4
I1
sg5
I48
sg6
F0.20000000000000001
sS'v'
g7
(F0.065831956324787153
F-0.022303875158954121
F0.00078000790206101615
tRp152
sg9
I4
sg10
I48
sg11
g7
(F3.5960984697769511
F1.9654702421269732
F2.6710181987236039
tRp153
sa(dp154
g3
F1
sg4
I2
sg5
I49
sg6
F1
sS'v'
g7
(F-0.18061515910485268
F-0.30350003256479752
F0.27912947232220736
tRp155
sg9
I1
sg10
I49
sg11
g7
(F3.2890963635560002
F4.1079375443040851
F0.94810930265783333
tRp156
sa(dp157
g3
F0
sg4
I1
sg5
I50
sg6
F0.20000000000000001
sS'v'
g7
(F-0.36138636405032559
F0.1644004567728399
F-0.36663951312344562
tRp158
sg9
I4
sg10
I50
sg11
g7
(F3.1562566770186242
F4.1683684496087032
F0.81333864487852581
tRp159
sa(dp160
g3
F1
sg4
I2
sg5
I51
sg6
F1
sS'v'
g7
(F0.16497917954891958
F-0.74883967123732897
F0.9757548697219478
tRp161
sg9
I1
sg10
I51
sg11
g7
(F3.5381263526858766
F4.9765521044658545
F0.3875104747590149
tRp162
sa(dp163
g3
F0
sg4
I1
sg5
I52
sg6
F0.20000000000000001
sS'v'
g7
(F0.38178736172126521
F-0.10918796601285501
F0.30504376184442072
tRp164
sg9
I4
sg10
I52
sg11
g7
(F3.6896627411359901
F4.9332139752066633
F0.50858632646017232
tRp165
sa(dp166
g3
F1
sg4
I2
sg5
I53
sg6
F1
sS'v'
g7
(F0.25516082044298305
F0.37439877736768995
F0.99936561158525306
tRp167
sg9
I1
sg10
I53
sg11
g7
(F1.0280351252009474
F3.5161093894214663
F0.14216302627098523
tRp168
sa(dp169
g3
F0
sg4
I1
sg5
I54
sg6
F0.20000000000000001
sS'v'
g7
(F0.021211083846406496
F-0.021489854597003435
F-0.041488534429432004
tRp170
sg9
I4
sg10
I54
sg11
g7
(F1.1106554554907309
F3.4324032055441798
F4.9805590062869021
tRp171
sa(dp172
g3
F1
sg4
I2
sg5
I55
sg6
F1
sS'v'
g7
(F0.71054981673822781
F-1.1445844902702478
F0.29262740189177761
tRp173
sg9
I1
sg10
I55
sg11
g7
(F0.1378176942699795
F0.78893391039975214
F3.8122175119318791
tRp174
sa(dp175
g3
F0
sg4
I1
sg5
I56
sg6
F0.20000000000000001
sS'v'
g7
(F-0.1490706291517726
F-0.17987096840189296
F0.025874312781572255
tRp176
sg9
I4
sg10
I56
sg11
g7
(F0.26503591230404949
F0.94243741545877824
F3.790136140278336
tRp177
sa(dp178
g3
F1
sg4
I2
sg5
I57
sg6
F1
sS'v'
g7
(F-0.95799053182270133
F0.40999135539928211
F-0.062852225891964195
tRp179
sg9
I1
sg10
I57
sg11
g7
(F1.0177067535230657
F1.029843098720526
F2.4159572831529554
tRp180
sa(dp181
g3
F0
sg4
I1
sg5
I58
sg6
F0.20000000000000001
sS'v'
g7
(F-0.22542583962579824
F-0.045881525431125503
F-0.0065256243334434758
tRp182
sg9
I4
sg10
I58
sg11
g7
(F1.214173379693841
F1.0698304778070815
F2.4216445965442586
tRp183
sa(dp184
g3
F1
sg4
I2
sg5
I59
sg6
F1
sS'v'
g7
(F-0.32270703728544553
F-0.023976053951650401
F-0.54389583519586771
tRp185
sg9
I1
sg10
I59
sg11
g7
(F1.9265203950998391
F0.87174928450023959
F4.8433900071650982
tRp186
sa(dp187
g3
F0
sg4
I1
sg5
I60
sg6
F0.20000000000000001
sS'v'
g7
(F0.35796945393248969
F-0.407357699632864
F-0.54281897254472078
tRp188
sg9
I4
sg10
I60
sg11
g7
(F1.8323180714548959
F0.97894849224971325
F4.9862368561644459
tRp189
sa(dp190
g3
F1
sg4
I2
sg5
I61
sg6
F1
sS'v'
g7
(F0.014474616957721231
F-0.11683817474622571
F0.76656032661059381
tRp191
sg9
I1
sg10
I61
sg11
g7
(F4.5569121473326222
F4.7530865703309679
F4.9129143971467935
tRp192
sa(dp193
g3
F0
sg4
I1
sg5
I62
sg6
F0.20000000000000001
sS'v'
g7
(F-0.036120450489680545
F0.012209917411902719
F0.2180467318325231
tRp194
sg9
I4
sg10
I62
sg11
g7
(F4.5243667186608096
F4.7640880110890595
F0.10937995230382705
tRp195
sa(dp196
g3
F1
sg4
I2
sg5
I63
sg6
F1
sS'v'
g7
(F0.25947486900135625
F-0.083546427154308947
F0.44322368931529499
tRp197
sg9
I1
sg10
I63
sg11
g7
(F1.8164941695681447
F1.598987964774335
F1.7859078394808356
tRp198
sa(dp199
g3
F0
sg4
I1
sg5
I64
sg6
F0.20000000000000001
sS'v'
g7
(F-0.02555745177381295
F0.14422897694142123
F-0.22135680360251089
tRp200
sg9
I4
sg10
I64
sg11
g7
(F1.7973007953981122
F1.7073023908406351
F1.6196712367777977
tRp201
sa(dp202
g3
F1
sg4
I2
sg5
I65
sg6
F1
sS'v'
g7
(F-0.037347532420112975
F0.46228476048721973
F-0.63466874911758142
tRp203
sg9
I1
sg10
I65
sg11
g7
(F1.6416578147577772
F3.525969809068827
F3.169694077695747
tRp204
sa(dp205
g3
F0
sg4
I1
sg5
I66
sg6
F0.20000000000000001
sS'v'
g7
(F0.3787879968685694
F0.24922790731519021
F-0.39123949054573792
tRp206
sg9
I4
sg10
I66
sg11
g7
(F1.7672085867506033
F3.6085773795944469
F3.0400162091302838
tRp207
sa(dp208
g3
F1
sg4
I2
sg5
I67
sg6
F1
sS'v'
g7
(F-0.39852790766496587
F0.5890102669834526
F0.79040013484810456
tRp209
sg9
I1
sg10
I67
sg11
g7
(F0.73611925669474831
F4.1839537837339167
F2.8239058041480964
tRp210
sa(dp211
g3
F0
sg4
I1
sg5
I68
sg6
F0.20000000000000001
sS'v'
g7
(F0.01973288511130309
F-0.069929176577885568
F-0.00037756281720292828
tRp212
sg9
I4
sg10
I68
sg11
g7
(F0.79038486266466446
F3.9916479389184225
F2.8228675031114432
tRp213
sa(dp214
g3
F1
sg4
I2
sg5
I69
sg6
F1
sS'v'
g7
(F0.55098094537828735
F0.6034439838753568
F0.41806343583312655
tRp215
sg9
I1
sg10
I69
sg11
g7
(F3.3011900750981154
F2.5157779759872869
F0.26013503729946408
tRp216
sa(dp217
g3
F0
sg4
I1
sg5
I70
sg6
F0.20000000000000001
sS'v'
g7
(F0.0040095606669065887
F0.10194539338281237
F0.043371807699077981
tRp218
sg9
I4
sg10
I70
sg11
g7
(F3.2939465276797213
F2.3316066035099738
F0.18178088037580256
tRp219
sa(dp220
g3
F1
sg4
I2
sg5
I71
sg6
F1
sS'v'
g7
(F0.034124558078703238
F0.050571832532443864
F0.58794244237053928
tRp221
sg9
I1
sg10
I71
sg11
g7
(F4.7943123266979075
F0.6788078551471658
F2.0045934735382067
tRp222
sa(dp223
g3
F0
sg4
I1
sg5
I72
sg6
F0.20000000000000001
sS'v'
g7
(F0.051274844501740455
F-0.088006263017729666
F-0.17230473836527746
tRp224
sg9
I4
sg10
I72
sg11
g7
(F4.8454185665431391
F0.59109097897967289
F1.8328553167298163
tRp225
sa(dp226
g3
F1
sg4
I2
sg5
I73
sg6
F1
sS'v'
g7
(F-0.43717772343591382
F0.64070045820351784
F0.42599857965003324
tRp227
sg9
I1
sg10
I73
sg11
g7
(F4.2138776041670321
F2.5879403751917485
F4.4691237448835111
tRp228
sa(dp229
g3
F0
sg4
I1
sg5
I74
sg6
F0.20000000000000001
sS'v'
g7
(F-0.2814121528159505
F-0.21758197536767829
F0.067793537958711014
tRp230
sg9
I4
sg10
I74
sg11
g7
(F4.0591562017320584
F2.468313031324064
F4.5063968731547712
tRp231
sa(dp232
g3
F1
sg4
I2
sg5
I75
sg6
F1
sS'v'
g7
(F-1.0577116159894031
F0.17568639829425867
F-1.5073036591066997
tRp233
sg9
I1
sg10
I75
sg11
g7
(F1.211849192004004
F0.058085591196956804
F4.7492475653975594
tRp234
sa(dp235
g3
F0
sg4
I1
sg5
I76
sg6
F0.20000000000000001
sS'v'
g7
(F0.0066249405186723613
F-0.028617864430934507
F-0.014819410746772763
tRp236
sg9
I4
sg10
I76
sg11
g7
(F1.2521043930873132
F4.8841945375346327
F4.6592002120868248
tRp237
sa(dp238
g3
F1
sg4
I2
sg5
I77
sg6
F1
sS'v'
g7
(F0.72241324490347503
F0.32549984759488215
F-0.52433605302696606
tRp239
sg9
I1
sg10
I77
sg11
g7
(F0.96712801948061089
F1.3037195527536407
F0.092717250937653747
tRp240
sa(dp241
g3
F0
sg4
I1
sg5
I78
sg6
F0.20000000000000001
sS'v'
g7
(F0.10152602968385059
F-0.28419321437698492
F0.044903469710247577
tRp242
sg9
I4
sg10
I78
sg11
g7
(F0.90032287663959809
F1.4907215298822807
F0.063170318812055745
tRp243
sa(dp244
g3
F1
sg4
I2
sg5
I79
sg6
F1
sS'v'
g7
(F-0.72254363763409768
F0.84939434637740829
F-1.0488136568102937
tRp245
sg9
I1
sg10
I79
sg11
g7
(F3.7807308337106615
F2.6933637076259065
F3.4458370375509784
tRp246
sa(dp247
g3
F0
sg4
I1
sg5
I80
sg6
F0.20000000000000001
sS'v'
g7
(F0.22189123407000041
F0.44314247244454391
F-0.70762631424753819
tRp248
sg9
I4
sg10
I80
sg11
g7
(F3.7288072317872949
F2.5896662658094889
F3.6114249536553933
tRp249
sa(dp250
g3
F1
sg4
I2
sg5
I81
sg6
F1
sS'v'
g7
(F-0.65754042863743289
F0.90429280198825213
F-0.11818638562262705
tRp251
sg9
I1
sg10
I81
sg11
g7
(F1.5350038639329782
F2.5416143099700177
F2.1617057770917105
tRp252
sa(dp253
g3
F0
sg4
I1
sg5
I82
sg6
F0.20000000000000001
sS'v'
g7
(F-0.1117862506579092
F-0.055228842683552708
F-0.019528793883676381
tRp254
sg9
I4
sg10
I82
sg11
g7
(F1.7124332534975562
F2.6292746419520667
F2.192702272253864
tRp255
sa(dp256
g3
F1
sg4
I2
sg5
I83
sg6
F1
sS'v'
g7
(F-0.75716577023902687
F-0.40045739599299712
F-0.44888138568269215
tRp257
sg9
I1
sg10
I83
sg11
g7
(F4.9897976310287184
F3.4126616416192821
F0.27633823709933619
tRp258
sa(dp259
g3
F0
sg4
I1
sg5
I84
sg6
F0.20000000000000001
sS'v'
g7
(F-0.29631044041677623
F0.077883191281622466
F0.21989153889600879
tRp260
sg9
I4
sg10
I84
sg11
g7
(F4.8333937096787043
F3.4537713524568936
F0.39240535544538879
tRp261
sa(dp262
g3
F1
sg4
I2
sg5
I85
sg6
F1
sS'v'
g7
(F-0.088881211915408209
F0.00083177691786606007
F0.33347866382010899
tRp263
sg9
I1
sg10
I85
sg11
g7
(F0.49864234879831193
F4.009287468302503
F1.2110691177190185
tRp264
sa(dp265
g3
F0
sg4
I1
sg5
I86
sg6
F0.20000000000000001
sS'v'
g7
(F-0.012114065054096826
F0.093183761703653875
F0.022434895301197407
tRp266
sg9
I4
sg10
I86
sg11
g7
(F0.52375119136687731
F3.816145332106653
F1.1645682733167089
tRp267
sa(dp268
g3
F1
sg4
I2
sg5
I87
sg6
F1
sS'v'
g7
(F0.1759799692388907
F-1.3136341345313189
F0.23158552076086206
tRp269
sg9
I1
sg10
I87
sg11
g7
(F0.19636381700716116
F3.4562078999746206
F2.2792238405439873
tRp270
sa(dp271
g3
F0
sg4
I1
sg5
I88
sg6
F0.20000000000000001
sS'v'
g7
(F0.23877635304941244
F-0.98755243163938955
F0.21233123545252394
tRp272
sg9
I4
sg10
I88
sg11
g7
(F0.24177570598633838
F3.268389379363227
F2.319606241766047
tRp273
sa(dp274
g3
F1
sg4
I2
sg5
I89
sg6
F1
sS'v'
g7
(F0.65928459121460792
F-0.41378964782793298
F-0.027040678843760279
tRp275
sg9
I1
sg10
I89
sg11
g7
(F4.5899966464751616
F2.5543129965824738
F2.136630698615972
tRp276
sa(dp277
g3
F0
sg4
I1
sg5
I90
sg6
F0.20000000000000001
sS'v'
g7
(F-0.047637578453210448
F-0.24457272223482718
F0.12160588633350242
tRp278
sg9
I4
sg10
I90
sg11
g7
(F4.5557526398903851
F2.3785032643793103
F2.2240464092285963
tRp279
sa(dp280
g3
F1
sg4
I2
sg5
I91
sg6
F1
sS'v'
g7
(F-0.63995825607371948
F0.21919676506268237
F-0.42012880263162622
tRp281
sg9
I1
sg10
I91
sg11
g7
(F0.050268868281514723
F0.10555752342041709
F2.9317930813470108
tRp282
sa(dp283
g3
F0
sg4
I1
sg5
I92
sg6
F0.20000000000000001
sS'v'
g7
(F-0.053422302835081752
F0.068248036942950938
F-0.58313687560200889
tRp284
sg9
I4
sg10
I92
sg11
g7
(F0.068525732653272067
F0.082234022036498641
F3.1310778422623518
tRp285
sa(dp286
g3
F1
sg4
I2
sg5
I93
sg6
F1
sS'v'
g7
(F0.11210147713324532
F0.27036581888086814
F0.1148153875908613
tRp287
sg9
I1
sg10
I93
sg11
g7
(F4.4496671807400174
F4.3211927188055848
F0.95552118765415972
tRp288
sa(dp289
g3
F0
sg4
I1
sg5
I94
sg6
F0.20000000000000001
sS'v'
g7
(F-0.46971364997976373
F0.36349343844693771
F-0.51843831093425408
tRp290
sg9
I4
sg10
I94
sg11
g7
(F4.3316816563506926
F4.4124972060162255
F0.82529670731016913
tRp291
sa(dp292
g3
F1
sg4
I2
sg5
I95
sg6
F1
sS'v'
g7
(F0.30308569576381089
F0.22631543527410317
F0.41385982980032965
tRp293
sg9
I1
sg10
I95
sg11
g7
(F0.50796217490099227
F2.575549968666901
F2.5456868047158854
tRp294
sa(dp295
g3
F0
sg4
I1
sg5
I96
sg6
F0.20000000000000001
sS'v'
g7
(F0.14601906356847499
F-0.4819100421838648
F0.16656460497978196
tRp296
sg9
I4
sg10
I96
sg11
g7
(F0.56265921363412963
F2.3950320855970801
F2.6080799637151313
tRp297
sa(dp298
g3
F1
sg4
I2
sg5
I97
sg6
F1
sS'v'
g7
(F-1.50084149504419
F0.039853644213575033
F0.72823906567743779
tRp299
sg9
I1
sg10
I97
sg11
g7
(F4.436284680984147
F3.9000841560957635
F2.843029751071894
tRp300
sa(dp301
g3
F0
sg4
I1
sg5
I98
sg6
F0.20000000000000001
sS'v'
g7
(F-0.011815531664296408
F0.25241260291290368
F0.083263945876758963
tRp302
sg9
I4
sg10
I98
sg11
g7
(F4.4274321571814896
F4.0891986740762993
F2.9054134070697448
tRp303
sa(dp304
g3
F1
sg4
I2
sg5
I99
sg6
F1
sS'v'
g7
(F0.10515131226270949
F-0.43311164605672187
F-0.049613554269151518
tRp305
sg9
I1
sg10
I99
sg11
g7
(F3.6939503037460644
F1.5164027320712423
F3.9289999547587922
tRp306
sa(dp307
g3
F0
sg4
I1
sg5
I100
sg6
F0.20000000000000001
sS'v'
g7
(F0.22815793831259432
F-0.46487081481524245
F0.77948156652381628
tRp308
sg9
I4
sg10
I100
sg11
g7
(F3.7421411671203462
F1.4182140558886973
F4.0936398088569428
tRp309
sa(dp310
g3
F1
sg4
I2
sg5
I101
sg6
F1
sS'v'
g7
(F-0.93972835943338051
F0.47932239326903769
F-0.82573830656799252
tRp311
sg9
I1
sg10
I101
sg11
g7
(F4.1409787155737119
F0.79318641993605876
F3.3527180620940342
tRp312
sa(dp313
g3
F0
sg4
I1
sg5
I102
sg6
F0.20000000000000001
sS'v'
g7
(F-0.01229504106261918
F0.057283968952412549
F-0.014857824859632428
tRp314
sg9
I4
sg10
I102
sg11
g7
(F4.1816924360553402
F0.60349665085529003
F3.4019181684799498
tRp315
sa(dp316
g3
F1
sg4
I2
sg5
I103
sg6
F1
sS'v'
g7
(F-0.06468158228061556
F0.42271116264906078
F0.54666872703007663
tRp317
sg9
I1
sg10
I103
sg11
g7
(F0.25573874889324616
F1.2998079707289316
F0.96274732352017744
tRp318
sa(dp319
g3
F0
sg4
I1
sg5
I104
sg6
F0.20000000000000001
sS'v'
g7
(F-0.81363630663283582
F0.62695121954982369
F-0.17545559401954419
tRp320
sg9
I4
sg10
I104
sg11
g7
(F0.1016112970740654
F1.4185715916445698
F0.92951069999047509
tRp321
sa(dp322
g3
F1
sg4
I2
sg5
I105
sg6
F1
sS'v'
g7
(F0.49501068358467964
F-0.19689036707741336
F1.1788525524032303
tRp323
sg9
I1
sg10
I105
sg11
g7
(F0.69317980526098755
F1.7771795220038991
F1.8353460420118155
tRp324
sa(dp325
g3
F0
sg4
I1
sg5
I106
sg6
F0.20000000000000001
sS'v'
g7
(F0.83680778022191826
F-0.27494942584837689
F0.047395459594114529
tRp326
sg9
I4
sg10
I106
sg11
g7
(F0.88081977990533689
F1.7155267691088603
F1.845973671255581
tRp327
sa(dp328
g3
F1
sg4
I2
sg5
I107
sg6
F1
sS'v'
g7
(F-0.76861072090357729
F-0.42298420155154842
F-0.58496972052270668
tRp329
sg9
I1
sg10
I107
sg11
g7
(F2.4109748252048466
F1.9606973494276196
F2.7015486522532917
tRp330
sa(dp331
g3
F0
sg4
I1
sg5
I108
sg6
F0.20000000000000001
sS'v'
g7
(F-0.31168802001621354
F-0.22108364311174455
F-0.20569597832836081
tRp332
sg9
I4
sg10
I108
sg11
g7
(F2.2681122388008252
F1.859363390345957
F2.6072676482051844
tRp333
sa(dp334
g3
F1
sg4
I2
sg5
I109
sg6
F1
sS'v'
g7
(F0.052955893680961347
F-0.69706931643752956
F0.46374238681407032
tRp335
sg9
I1
sg10
I109
sg11
g7
(F2.0004288960388439
F0.96041642702742291
F2.9806999197647754
tRp336
sa(dp337
g3
F0
sg4
I1
sg5
I110
sg6
F0.20000000000000001
sS'v'
g7
(F0.44718297197907347
F-0.03670403972750557
F0.0076752932662123696
tRp338
sg9
I4
sg10
I110
sg11
g7
(F2.1986114804830654
F0.94414992783460294
F2.9841014568338937
tRp339
sa(dp340
g3
F1
sg4
I2
sg5
I111
sg6
F1
sS'v'
g7
(F0.45940052746718679
F0.84614827895478528
F-0.40058035510732315
tRp341
sg9
I1
sg10
I111
sg11
g7
(F4.2823980360216423
F1.59233750978925
F2.0430969742331109
tRp342
sa(dp343
g3
F0
sg4
I1
sg5
I112
sg6
F0.20000000000000001
sS'v'
g7
(F-0.0028440713868654478
F-0.0045058010055859269
F0.002103283707695509
tRp344
sg9
I4
sg10
I112
sg11
g7
(F4.1831082455212627
F1.435034834495259
F2.1165250181508526
tRp345
sa(dp346
g3
F1
sg4
I2
sg5
I113
sg6
F1
sS'v'
g7
(F-0.0013424902057451176
F-0.50201360153035635
F0.72071989625180055
tRp347
sg9
I1
sg10
I113
sg11
g7
(F1.2965141343872437
F2.1403060828231295
F4.5081506112516019
tRp348
sa(dp349
g3
F0
sg4
I1
sg5
I114
sg6
F0.20000000000000001
sS'v'
g7
(F0.31810847242679419
F-0.28021177252633167
F0.23470498743063295
tRp350
sg9
I4
sg10
I114
sg11
g7
(F1.1644209052907029
F2.2566628638340047
F4.410690334767108
tRp351
sa(dp352
g3
F1
sg4
I2
sg5
I115
sg6
F1
sS'v'
g7
(F-0.21485391566473638
F0.20233309620813494
F0.90058454770345953
tRp353
sg9
I1
sg10
I115
sg11
g7
(F1.7095936816837798
F0.43975115230560063
F1.809196409565323
tRp354
sa(dp355
g3
F0
sg4
I1
sg5
I116
sg6
F0.20000000000000001
sS'v'
g7
(F-0.06146978400321608
F-0.086862466675456051
F0.078703105416477848
tRp356
sg9
I4
sg10
I116
sg11
g7
(F1.8026337035203965
F0.57122527292141401
F1.6900722127701051
tRp357
sa(dp358
g3
F1
sg4
I2
sg5
I117
sg6
F1
sS'v'
g7
(F-0.23566212686278604
F0.59136222718659648
F-0.1410695601527234
tRp359
sg9
I1
sg10
I117
sg11
g7
(F2.4686638115571444
F1.0681759304627343
F3.927204237267274
tRp360
sa(dp361
g3
F0
sg4
I1
sg5
I118
sg6
F0.20000000000000001
sS'v'
g7
(F0.064783702108785424
F-0.1526335246623039
F0.2171556780118595
tRp362
sg9
I4
sg10
I118
sg11
g7
(F2.5159237981530489
F0.95682912417010801
F4.0856202292220356
tRp363
sa(dp364
g3
F1
sg4
I2
sg5
I119
sg6
F1
sS'v'
g7
(F0.11411967789006354
F1.1709881610835151
F0.48311278305690719
tRp365
sg9
I1
sg10
I119
sg11
g7
(F4.2596401564042248
F4.6290892241465187
F3.7138380285108656
tRp366
sa(dp367
g3
F0
sg4
I1
sg5
I120
sg6
F0.20000000000000001
sS'v'
g7
(F-0.14502768630735177
F-0.20233615577996089
F0.48523186663535223
tRp368
sg9
I4
sg10
I120
sg11
g7
(F4.2068171698350669
F4.5553929506186543
F3.8905725336720867
tRp369
sa(dp370
g3
F1
sg4
I2
sg5
I121
sg6
F1
sS'v'
g7
(F-1.8139150631119059
F0.32441835261448015
F-0.45677392600372907
tRp371
sg9
I1
sg10
I121
sg11
g7
(F3.3359905936483778
F3.1177971680643073
F4.3120188740038996
tRp372
sa(dp373
g3
F0
sg4
I1
sg5
I122
sg6
F0.20000000000000001
sS'v'
g7
(F-0.26998409687303893
F0.22229126324268739
F0.67227045051710099
tRp374
sg9
I4
sg10
I122
sg11
g7
(F3.2654103186516763
F3.1759094001207422
F4.4877663858729653
tRp375
sa(dp376
g3
F1
sg4
I2
sg5
I123
sg6
F1
sS'v'
g7
(F-0.1371325161183426
F-1.6792049100465636
F-0.57018758377015699
tRp377
sg9
I1
sg10
I123
sg11
g7
(F2.9646643379994759
F4.1226573503015231
F2.6758130969842275
tRp378
sa(dp379
g3
F0
sg4
I1
sg5
I124
sg6
F0.20000000000000001
sS'v'
g7
(F0.16711925411381065
F-0.1266119879789267
F-0.76002156791192532
tRp380
sg9
I4
sg10
I124
sg11
g7
(F3.0066404717555471
F4.0908556182347553
F2.4849148838409136
tRp381
sa(dp382
g3
F1
sg4
I2
sg5
I125
sg6
F1
sS'v'
g7
(F-0.28909196398230907
F-1.3123993696340748
F-0.51993316238462106
tRp383
sg9
I1
sg10
I125
sg11
g7
(F2.2411916033456682
F2.2524563634403809
F0.16263302667336585
tRp384
sa(dp385
g3
F0
sg4
I1
sg5
I126
sg6
F0.20000000000000001
sS'v'
g7
(F-0.25269666063169754
F0.17129408709885741
F-0.28924034030147661
tRp386
sg9
I4
sg10
I126
sg11
g7
(F2.1216472534193374
F2.3334912304515543
F0.025800793246243535
tRp387
sa(dp388
g3
F1
sg4
I2
sg5
I127
sg6
F1
sS'v'
g7
(F-0.58315917363569003
F0.67845689966885125
F-0.55354917044382035
tRp389
sg9
I1
sg10
I127
sg11
g7
(F4.3593231495274614
F0.7277612448726537
F4.5338796988867465
tRp390
sa(dp391
g3
F0
sg4
I1
sg5
I128
sg6
F0.20000000000000001
sS'v'
g7
(F0.73064862488088156
F0.0098663619342705816
F-0.8067004746537374
tRp392
sg9
I4
sg10
I128
sg11
g7
(F4.4917521446858544
F0.72954950855006429
F4.3876664171336879
tRp393
sa(dp394
g3
F1
sg4
I2
sg5
I129
sg6
F1
sS'v'
g7
(F0.48814815221212032
F0.5607366842993653
F-0.27031943902087607
tRp395
sg9
I1
sg10
I129
sg11
g7
(F0.56418717258907625
F4.5169725645192758
F0.33432279795084413
tRp396
sa(dp397
g3
F0
sg4
I1
sg5
I130
sg6
F0.20000000000000001
sS'v'
g7
(F0.00083293926174949652
F-0.38170758313444958
F-0.5183096437818735
tRp398
sg9
I4
sg10
I130
sg11
g7
(F0.56444388865933859
F4.3993283673592165
F0.17457715857339148
tRp399
sa(dp400
g3
F1
sg4
I2
sg5
I131
sg6
F1
sS'v'
g7
(F1.7316650510787188
F0.3373797177516113
F-0.22126763827486495
tRp401
sg9
I1
sg10
I131
sg11
g7
(F4.8497112146236061
F4.5196288204023993
F1.925597554593053
tRp402
sa(dp403
g3
F0
sg4
I1
sg5
I132
sg6
F0.20000000000000001
sS'v'
g7
(F0.72492870554184885
F-0.38344135286005637
F0.56145189482526459
tRp404
sg9
I4
sg10
I132
sg11
g7
(F4.9937789113229414
F4.443426137154348
F2.0371769149861474
tRp405
sa(dp406
g3
F1
sg4
I2
sg5
I133
sg6
F1
sS'v'
g7
(F0.073034502205310631
F0.24093928769282397
F0.63675132872559892
tRp407
sg9
I1
sg10
I133
sg11
g7
(F1.2129895259539119
F3.5833377138645819
F1.9916247736010289
tRp408
sa(dp409
g3
F0
sg4
I1
sg5
I134
sg6
F0.20000000000000001
sS'v'
g7
(F0.081521903172527749
F0.04606176526428582
F-0.044091117610558693
tRp410
sg9
I4
sg10
I134
sg11
g7
(F1.3703212369219051
F3.672233778078136
F1.9065319249039205
tRp411
sa(dp412
g3
F1
sg4
I2
sg5
I135
sg6
F1
sS'v'
g7
(F0.42487272471557697
F-0.67761653370574404
F-0.48691476075669549
tRp413
sg9
I1
sg10
I135
sg11
g7
(F0.3752531204607702
F2.4415707525056698
F0.50091537889752591
tRp414
sa(dp415
g3
F0
sg4
I1
sg5
I136
sg6
F0.20000000000000001
sS'v'
g7
(F0.11349983829838607
F0.021759110533550962
F0.2587290139323829
tRp416
sg9
I4
sg10
I136
sg11
g7
(F0.29486111630422579
F2.4261587613462003
F0.31765746174711418
tRp417
sa(dp418
g3
F1
sg4
I2
sg5
I137
sg6
F1
sS'v'
g7
(F-0.47990423343613553
F-1.9052469962496315
F-0.09328915155579845
tRp419
sg9
I1
sg10
I137
sg11
g7
(F3.0052954782457939
F4.9710463244971876
F3.3892077959654858
tRp420
sa(dp421
g3
F0
sg4
I1
sg5
I138
sg6
F0.20000000000000001
sS'v'
g7
(F0.25724876830643451
F-0.50945413211813473
F-0.31462165123912228
tRp422
sg9
I4
sg10
I138
sg11
g7
(F3.0835998732755749
F4.8159727050059846
F3.2934395704235717
tRp423
sa(dp424
g3
F1
sg4
I2
sg5
I139
sg6
F1
sS'v'
g7
(F0.16466180196366367
F0.72228688021796983
F-0.78143621517339079
tRp425
sg9
I1
sg10
I139
sg11
g7
(F2.6441932050212418
F3.402968385805063
F0.20952695436213412
tRp426
sa(dp427
g3
F0
sg4
I1
sg5
I140
sg6
F0.20000000000000001
sS'v'
g7
(F0.043099095986391077
F0.23714223450190658
F-0.25540491350058059
tRp428
sg9
I4
sg10
I140
sg11
g7
(F2.6195399809060476
F3.2673200497889323
F0.35562177209658963
tRp429
sa(dp430
g3
F1
sg4
I2
sg5
I141
sg6
F1
sS'v'
g7
(F0.88169632257225894
F0.00084934286844325026
F-0.24209642482252142
tRp431
sg9
I1
sg10
I141
sg11
g7
(F0.54892866297355669
F2.805481440643232
F1.4645126432338098
tRp432
sa(dp433
g3
F0
sg4
I1
sg5
I142
sg6
F0.20000000000000001
sS'v'
g7
(F0.10014475087785828
F0.2069522842968545
F-0.21598371021915549
tRp434
sg9
I4
sg10
I142
sg11
g7
(F0.48518455191049115
F2.6737522258882476
F1.6019905388932099
tRp435
sa(dp436
g3
F1
sg4
I2
sg5
I143
sg6
F1
sS'v'
g7
(F0.68418613957616514
F1.6315808405310985
F-0.25414629338938355
tRp437
sg9
I1
sg10
I143
sg11
g7
(F3.6197546997905845
F3.147582961341135
F2.3764434586364622
tRp438
sa(dp439
g3
F0
sg4
I1
sg5
I144
sg6
F0.20000000000000001
sS'v'
g7
(F0.038058385417618835
F-0.05343255677580741
F-0.18558235519656885
tRp440
sg9
I4
sg10
I144
sg11
g7
(F3.5809893460421427
F3.2020080753434481
F2.5654731710039629
tRp441
sa(dp442
g3
F1
sg4
I2
sg5
I145
sg6
F1
sS'v'
g7
(F0.12115173845979335
F0.74473357174368549
F-0.30225584585717707
tRp443
sg9
I1
sg10
I145
sg11
g7
(F2.0163686702305053
F4.9708049129254404
F3.8483814525814619
tRp444
sa(dp445
g3
F0
sg4
I1
sg5
I146
sg6
F0.20000000000000001
sS'v'
g7
(F-0.12266455108028028
F0.011553127860405304
F-0.18706141624447178
tRp446
sg9
I4
sg10
I146
sg11
g7
(F2.1262015739964082
F4.9604603303275177
F4.0158748184133408
tRp447
sa(dp448
g3
F1
sg4
I2
sg5
I147
sg6
F1
sS'v'
g7
(F0.1011393280213826
F-0.9470618059143342
F0.15867311334482131
tRp449
sg9
I1
sg10
I147
sg11
g7
(F0.44434309785942455
F4.7438708568484209
F4.0846823527161149
tRp450
sa(dp451
g3
F0
sg4
I1
sg5
I148
sg6
F0.20000000000000001
sS'v'
g7
(F-0.55043947093479739
F-0.41212690244708239
F0.21769485086960857
tRp452
sg9
I4
sg10
I148
sg11
g7
(F0.29308751516686671
F4.6306222653783218
F4.1445028475318884
tRp453
sa(dp454
g3
F1
sg4
I2
sg5
I149
sg6
F1
sS'v'
g7
(F0.19901726707930456
F-0.27449744327684428
F-0.1323376508138179
tRp455
sg9
I1
sg10
I149
sg11
g7
(F0.25394689522784675
F3.8158014921023766
F3.6194685087910341
tRp456
sa(dp457
g3
F0
sg4
I1
sg5
I150
sg6
F0.20000000000000001
sS'v'
g7
(F-0.010720731739236732
F0.026006160619476786
F0.13940630860064832
tRp458
sg9
I4
sg10
I150
sg11
g7
(F0.26905039211831255
F3.7791636976305987
F3.4230712105772172
tRp459
sa(dp460
g3
F1
sg4
I2
sg5
I151
sg6
F1
sS'v'
g7
(F-0.68209675436225503
F0.24839642049742205
F0.13271837099690956
tRp461
sg9
I1
sg10
I151
sg11
g7
(F2.7780764608020112
F3.0192547830589143
F3.0853026356267717
tRp462
sa(dp463
g3
F0
sg4
I1
sg5
I152
sg6
F0.20000000000000001
sS'v'
g7
(F-0.27274935497051317
F0.43775637063522638
F-0.19960475665474756
tRp464
sg9
I4
sg10
I152
sg11
g7
(F2.8773928461896525
F2.8598542945899186
F3.1579848347809087
tRp465
sa(dp466
g3
F1
sg4
I2
sg5
I153
sg6
F1
sS'v'
g7
(F0.43886889108983251
F-0.035233952462717821
F0.090049160356658997
tRp467
sg9
I1
sg10
I153
sg11
g7
(F3.9315604035077625
F3.4608882270635983
F0.29116434983101686
tRp468
sa(dp469
g3
F0
sg4
I1
sg5
I154
sg6
F0.20000000000000001
sS'v'
g7
(F0.38518526742702164
F-0.012548219364377243
F-0.040505592163954253
tRp470
sg9
I4
sg10
I154
sg11
g7
(F3.7317984965610376
F3.4673958908840707
F0.31217105755565966
tRp471
sa(dp472
g3
F1
sg4
I2
sg5
I155
sg6
F1
sS'v'
g7
(F-0.28222105556276844
F0.51349478172434249
F0.093867028497762489
tRp473
sg9
I1
sg10
I155
sg11
g7
(F2.4832984218644798
F2.0820386629396412
F3.8279192349545652
tRp474
sa(dp475
g3
F0
sg4
I1
sg5
I156
sg6
F0.20000000000000001
sS'v'
g7
(F-0.34323813567076805
F0.34248538371318815
F0.12183795067696937
tRp476
sg9
I4
sg10
I156
sg11
g7
(F2.6214646400262516
F1.9441754556626869
F3.7788748919047466
tRp477
sa(dp478
g3
F1
sg4
I2
sg5
I157
sg6
F1
sS'v'
g7
(F0.076557639180680218
F-0.18859457436222216
F0.26935621724056569
tRp479
sg9
I1
sg10
I157
sg11
g7
(F3.4626627644006827
F3.1083741873793578
F1.2683342833064086
tRp480
sa(dp481
g3
F0
sg4
I1
sg5
I158
sg6
F0.20000000000000001
sS'v'
g7
(F-0.22364971754842863
F0.17195208240420987
F-0.043200039871308486
tRp482
sg9
I4
sg10
I158
sg11
g7
(F3.3064944923879569
F3.2284434629966654
F1.2381689173424555
tRp483
sa(dp484
g3
F1
sg4
I2
sg5
I159
sg6
F1
sS'v'
g7
(F0.17125024839799394
F0.62076495681221366
F0.55469490446947445
tRp485
sg9
I1
sg10
I159
sg11
g7
(F3.9044167941066821
F0.22462612736346321
F2.5342777084486303
tRp486
sa(dp487
g3
F0
sg4
I1
sg5
I160
sg6
F0.20000000000000001
sS'v'
g7
(F-0.010740629466221577
F0.087630809918189029
F0.041445800985619549
tRp488
sg9
I4
sg10
I160
sg11
g7
(F3.9264687282609585
F0.044708473907569199
F2.449183992369842
tRp489
sa(dp490
g3
F1
sg4
I2
sg5
I161
sg6
F1
sS'v'
g7
(F-0.44253230911050029
F0.26071741178116864
F0.69811529575356135
tRp491
sg9
I1
sg10
I161
sg11
g7
(F2.4573150139635769
F4.0230458877990394
F3.7388535215807819
tRp492
sa(dp493
g3
F0
sg4
I1
sg5
I162
sg6
F0.20000000000000001
sS'v'
g7
(F0.17578015087607443
F-0.0020410006866768277
F0.16128139933355035
tRp494
sg9
I4
sg10
I162
sg11
g7
(F2.3095126153673653
F4.0247620360417384
F3.6032422051059321
tRp495
sa(dp496
g3
F1
sg4
I2
sg5
I163
sg6
F1
sS'v'
g7
(F-0.19785092573856378
F0.57570012663931847
F0.0080598706378731157
tRp497
sg9
I1
sg10
I163
sg11
g7
(F0.28727498413116115
F2.000001278686272
F3.9731927207879041
tRp498
sa(dp499
g3
F0
sg4
I1
sg5
I164
sg6
F0.20000000000000001
sS'v'
g7
(F-0.14030829164863426
F0.077718033215875185
F0.33721598748052567
tRp500
sg9
I4
sg10
I164
sg11
g7
(F0.212477675867041
F2.0414321850127943
F4.1529600593450198
tRp501
sa(dp502
g3
F1
sg4
I2
sg5
I165
sg6
F1
sS'v'
g7
(F0.099548351293024528
F-1.1574281208796537
F0.79703748916272998
tRp503
sg9
I1
sg10
I165
sg11
g7
(F2.0089651642003319
F4.59716859325572
F2.8700820203256061
tRp504
sa(dp505
g3
F0
sg4
I1
sg5
I166
sg6
F0.20000000000000001
sS'v'
g7
(F0.039697975166490068
F-0.12211454639636242
F-0.016503026126606042
tRp506
sg9
I4
sg10
I166
sg11
g7
(F1.9475380021796871
F4.7861240751186536
F2.8956181857209051
tRp507
sa(dp508
g3
F1
sg4
I2
sg5
I167
sg6
F1
sS'v'
g7
(F0.25628166945217612
F-0.49364005370986636
F0.32537387985844074
tRp509
sg9
I1
sg10
I167
sg11
g7
(F2.1672179362816082
F4.2725336161022067
F4.8262547548729948
tRp510
sa(dp511
g3
F0
sg4
I1
sg5
I168
sg6
F0.20000000000000001
sS'v'
g7
(F-0.43768793478085938
F-0.34337947686135267
F-0.25920002539011378
tRp512
sg9
I4
sg10
I168
sg11
g7
(F2.025680138478283
F4.1614929154026381
F4.7424356731277992
tRp513
sa(dp514
g3
F1
sg4
I2
sg5
I169
sg6
F1
sS'v'
g7
(F-0.68689097704621227
F-0.033037818208628507
F-0.093456348353576649
tRp515
sg9
I1
sg10
I169
sg11
g7
(F3.5469568285446913
F1.6877942588294794
F1.0664664783222562
tRp516
sa(dp517
g3
F0
sg4
I1
sg5
I170
sg6
F0.20000000000000001
sS'v'
g7
(F0.12222565895789307
F-0.053064879581346286
F0.026211801394548821
tRp518
sg9
I4
sg10
I170
sg11
g7
(F3.7266575894610807
F1.6097762770079243
F1.1050040546032922
tRp519
sa(dp520
g3
F1
sg4
I2
sg5
I171
sg6
F1
sS'v'
g7
(F-0.6940293549568366
F-0.11264482918705328
F0.014950695721510435
tRp521
sg9
I1
sg10
I171
sg11
g7
(F4.2698768357572296
F2.5322619277947198
F0.74543561018338411
tRp522
sa(dp523
g3
F0
sg4
I1
sg5
I172
sg6
F0.20000000000000001
sS'v'
g7
(F-0.0011436261779014046
F0.040048639208767431
F-0.14095306027481569
tRp524
sg9
I4
sg10
I172
sg11
g7
(F4.2714405695880604
F2.4775015408609367
F0.93816735519758188
tRp525
sa(dp526
g3
F1
sg4
I2
sg5
I173
sg6
F1
sS'v'
g7
(F1.1489924022050335
F-0.30429642826241476
F0.60049077922241145
tRp527
sg9
I1
sg10
I173
sg11
g7
(F1.2300631113462173
F0.23108791249153943
F3.2641511746411438
tRp528
sa(dp529
g3
F0
sg4
I1
sg5
I174
sg6
F0.20000000000000001
sS'v'
g7
(F-0.12855580640119504
F0.13395528878348939
F0.18881077565344814
tRp530
sg9
I4
sg10
I174
sg11
g7
(F1.1332887206978994
F0.33192693181739946
F3.4062843716799112
tRp531
sa(dp532
g3
F1
sg4
I2
sg5
I175
sg6
F1
sS'v'
g7
(F0.6365435315316994
F-1.4484439941036478
F0.35579402155476597
tRp533
sg9
I1
sg10
I175
sg11
g7
(F1.3184147171093443
F4.0294140620772385
F4.1405120992735078
tRp534
sa(dp535
g3
F0
sg4
I1
sg5
I176
sg6
F0.20000000000000001
sS'v'
g7
(F0.21919444481025085
F-0.40172287031342585
F0.62406170122005555
tRp536
sg9
I4
sg10
I176
sg11
g7
(F1.2612180944473661
F4.1342396722695698
F3.9776693699635794
tRp537
sa(dp538
g3
F1
sg4
I2
sg5
I177
sg6
F1
sS'v'
g7
(F-0.24650147036161443
F1.051522334565165
F0.6159745978783645
tRp539
sg9
I1
sg10
I177
sg11
g7
(F3.5475444601697177
F3.7553628483046677
F3.5179812139205988
tRp540
sa(dp541
g3
F0
sg4
I1
sg5
I178
sg6
F0.20000000000000001
sS'v'
g7
(F0.075801992896744719
F0.71692092764926918
F0.29584422680903399
tRp542
sg9
I4
sg10
I178
sg11
g7
(F3.5279000770384288
F3.5695699840357111
F3.4413120246747027
tRp543
sa(dp544
g3
F1
sg4
I2
sg5
I179
sg6
F1
sS'v'
g7
(F1.3665322512918701
F0.15731689610821076
F-0.75938535862613055
tRp545
sg9
I1
sg10
I179
sg11
g7
(F1.5307973050360149
F4.7592139409711738
F0.84510333454617348
tRp546
sa(dp547
g3
F0
sg4
I1
sg5
I180
sg6
F0.20000000000000001
sS'v'
g7
(F0.44970569417414663
F-0.082911860653256356
F-0.36328465625607559
tRp548
sg9
I4
sg10
I180
sg11
g7
(F1.3756708630756909
F4.7878144726212559
F0.97041875054791327
tRp549
sa(dp550
g3
F1
sg4
I2
sg5
I181
sg6
F1
sS'v'
g7
(F0.64798620135360341
F1.1129971943631041
F-0.022188951315015751
tRp551
sg9
I1
sg10
I181
sg11
g7
(F0.16849804210386704
F1.4978950970812339
F2.7495063432603364
tRp552
sa(dp553
g3
F0
sg4
I1
sg5
I182
sg6
F0.20000000000000001
sS'v'
g7
(F0.23943326767392009
F0.8231665704590998
F0.36328140719851498
tRp554
sg9
I4
sg10
I182
sg11
g7
(F0.11646800921485266
F1.3190169313601166
F2.6705634973135992
tRp555
sa(dp556
g3
F1
sg4
I2
sg5
I183
sg6
F1
sS'v'
g7
(F0.25365223169896045
F-0.21300410887698915
F-0.032317173789696313
tRp557
sg9
I1
sg10
I183
sg11
g7
(F2.6517615451181236
F0.19939720367683869
F2.4451704136486132
tRp558
sa(dp559
g3
F0
sg4
I1
sg5
I184
sg6
F0.20000000000000001
sS'v'
g7
(F0.1718077162538017
F0.067244390976650345
F-0.22633083201634932
tRp560
sg9
I4
sg10
I184
sg11
g7
(F2.7690076156719843
F0.24528653147136539
F2.2907163455909121
tRp561
sa(dp562
g3
F1
sg4
I2
sg5
I185
sg6
F1
sS'v'
g7
(F0.468347007991394
F-0.33993346760922333
F-1.0528094763574953
tRp563
sg9
I1
sg10
I185
sg11
g7
(F1.8375129800024774
F3.7675843493533736
F0.89118492658115789
tRp564
sa(dp565
g3
F0
sg4
I1
sg5
I186
sg6
F0.20000000000000001
sS'v'
g7
(F-0.19267946606815031
F0.084995445323698154
F-0.095635161234720864
tRp566
sg9
I4
sg10
I186
sg11
g7
(F1.6713827669461849
F3.8408682945945656
F0.80872730908922674
tRp567
sa(dp568
g3
F1
sg4
I2
sg5
I187
sg6
F1
sS'v'
g7
(F0.030652538335616153
F-0.1433263394784984
F0.20692212118324876
tRp569
sg9
I1
sg10
I187
sg11
g7
(F2.6635215934332379
F0.27688880337444488
F4.9773642607135704
tRp570
sa(dp571
g3
F0
sg4
I1
sg5
I188
sg6
F0.20000000000000001
sS'v'
g7
(F0.27174424277352732
F0.1606205228754711
F-0.30963993425273034
tRp572
sg9
I4
sg10
I188
sg11
g7
(F2.5399303439726166
F0.20383742643049277
F0.11819074508215795
tRp573
sa(dp574
g3
F1
sg4
I2
sg5
I189
sg6
F1
sS'v'
g7
(F-0.47996452372575099
F-0.34118049342743595
F0.11489434448015191
tRp575
sg9
I1
sg10
I189
sg11
g7
(F1.9873463747745812
F2.7725867697558
F1.1218166660841391
tRp576
sa(dp577
g3
F0
sg4
I1
sg5
I190
sg6
F0.20000000000000001
sS'v'
g7
(F0.018954172384158249
F0.082948030226309907
F0.08296791022336579
tRp578
sg9
I4
sg10
I190
sg11
g7
(F2.0191972181023448
F2.9119737427946717
F1.2612370457344286
tRp579
sa(dp580
g3
F1
sg4
I2
sg5
I191
sg6
F1
sS'v'
g7
(F0.4134720664291428
F-1.1043057164630075
F0.74723130951008099
tRp581
sg9
I1
sg10
I191
sg11
g7
(F1.2797100498414966
F2.0058720499520253
F0.91915136691326893
tRp582
sa(dp583
g3
F0
sg4
I1
sg5
I192
sg6
F0.20000000000000001
sS'v'
g7
(F-0.19291553523451196
F-0.42497236433803154
F0.61307096462744637
tRp584
sg9
I4
sg10
I192
sg11
g7
(F1.330267598548561
F2.1172449416326153
F0.75848330502099826
tRp585
sa(dp586
g3
F1
sg4
I2
sg5
I193
sg6
F1
sS'v'
g7
(F0.2909179142832487
F-0.28663680849628931
F-0.76375153539497187
tRp587
sg9
I1
sg10
I193
sg11
g7
(F4.4544739869144543
F3.6249616893072654
F4.2626793577941733
tRp588
sa(dp589
g3
F0
sg4
I1
sg5
I194
sg6
F0.20000000000000001
sS'v'
g7
(F0.43859605545306246
F-0.078570766029139039
F-0.22168887174076504
tRp590
sg9
I4
sg10
I194
sg11
g7
(F4.2771214016411188
F3.6567329018134513
F4.3523224223879478
tRp591
sa(dp592
g3
F1
sg4
I2
sg5
I195
sg6
F1
sS'v'
g7
(F-0.44975415195997032
F0.37089996329440639
F-0.14087038705927307
tRp593
sg9
I1
sg10
I195
sg11
g7
(F1.797735815291658
F4.4236453185257538
F1.7576615568218186
tRp594
sa(dp595
g3
F0
sg4
I1
sg5
I196
sg6
F0.20000000000000001
sS'v'
g7
(F-0.034904559518071393
F-0.0059887132605715605
F0.0050648389534962736
tRp596
sg9
I4
sg10
I196
sg11
g7
(F1.9929572690020769
F4.4571402350846734
F1.7293338759410792
tRp597
sa(dp598
g3
F1
sg4
I2
sg5
I197
sg6
F1
sS'v'
g7
(F0.19860989052585359
F0.2728982926859353
F-0.83501714811759908
tRp599
sg9
I1
sg10
I197
sg11
g7
(F3.3476127675753236
F0.29982968574661223
F4.2620383931501324
tRp600
sa(dp601
g3
F0
sg4
I1
sg5
I198
sg6
F0.20000000000000001
sS'v'
g7
(F-0.25063729144522845
F0.38338935767171417
F-0.027094031033968843
tRp602
sg9
I4
sg10
I198
sg11
g7
(F3.4574859332633539
F0.1317613102243802
F4.2739157436584563
tRp603
sa(dp604
g3
F1
sg4
I2
sg5
I199
sg6
F1
sS'v'
g7
(F0.57505323052978208
F-0.61335130048493092
F-0.11945092178011757
tRp605
sg9
I1
sg10
I199
sg11
g7
(F4.8312996438369638
F2.9234967446765276
F3.2826902840176686
tRp606
sa(dp607
g3
F0
sg4
I1
sg5
I200
sg6
F0.20000000000000001
sS'v'
g7
(F0.061169345993185839
F-0.10363128601906452
F0.15827983969453022
tRp608
sg9
I4
sg10
I200
sg11
g7
(F4.7696176390742124
F3.0279965619299287
F3.1230839049177006
tRp609
sa.