(lp1
(dp2
S'lambda_adr'
p3
F1
sS'state'
p4
I2
sS'res_id'
p5
I1
sS'mass'
p6
F1
sS'v'
c_espressopp
Real3D
p7
(F-0.94804742235673234
F-3.4533228145938768
F-0.97405878707978022
tRp8
sS'type'
p9
I1
sS'pid'
p10
I1
sS'pos'
p11
g7
(F3.3833916554753394
F4.5321291772170182
F1.9215762874096194
tRp12
sa(dp13
g3
F0
sg4
I1
sg5
I2
sg6
F0.20000000000000001
sS'v'
g7
(F0
F0
F0
tRp14
sg9
I4
sg10
I2
sg11
g7
(F3.1340459151325386
F4.4164206658412049
F2.3392343319485622
tRp15
sa(dp16
g3
F1
sg4
I2
sg5
I3
sg6
F1
sS'v'
g7
(F-1.8389913332844561
F-0.42700855983844482
F1.8685992676729051
tRp17
sg9
I1
sg10
I3
sg11
g7
(F2.395064101116692
F3.7717374019209626
F0.33120892727330598
tRp18
sa(dp19
g3
F0
sg4
I1
sg5
I4
sg6
F0.20000000000000001
sS'v'
g7
(F0
F0
F0
tRp20
sg9
I4
sg10
I4
sg11
g7
(F2.5578470715275117
F4.2231559377964336
F0.19077029294401585
tRp21
sa(dp22
g3
F1
sg4
I2
sg5
I5
sg6
F1
sS'v'
g7
(F-1.9705458940076499
F2.4486910563364357
F-0.63315666797280457
tRp23
sg9
I1
sg10
I5
sg11
g7
(F0.68522248976872202
F2.2498805830780819
F1.4032657810103342
tRp24
sa(dp25
g3
F0
sg4
I1
sg5
I6
sg6
F0.20000000000000001
sS'v'
g7
(F0
F0
F0
tRp26
sg9
I4
sg10
I6
sg11
g7
(F0.71744087085148711
F2.1343017129900899
F1.888655831083045
tRp27
sa(dp28
g3
F1
sg4
I2
sg5
I7
sg6
F1
sS'v'
g7
(F-1.5918420346348086
F-1.8975102517283722
F0.20542893989376837
tRp29
sg9
I1
sg10
I7
sg11
g7
(F2.4997111934995129
F1.7281729470498557
F0.24665080686980551
tRp30
sa(dp31
g3
F0
sg4
I1
sg5
I8
sg6
F0.20000000000000001
sS'v'
g7
(F0
F0
F0
tRp32
sg9
I4
sg10
I8
sg11
g7
(F2.9225494911630308
F1.9859497252385987
F0.31563563604006534
tRp33
sa(dp34
g3
F1
sg4
I2
sg5
I9
sg6
F1
sS'v'
g7
(F-1.6151736290267413
F0.34692652729416051
F-2.2767262011017984
tRp35
sg9
I1
sg10
I9
sg11
g7
(F0.62543207239913834
F1.311358578833004
F3.9037279165028291
tRp36
sa(dp37
g3
F0
sg4
I1
sg5
I10
sg6
F0.20000000000000001
sS'v'
g7
(F0
F0
F0
tRp38
sg9
I4
sg10
I10
sg11
g7
(F0.53369407929739665
F1.2207532903893377
F4.3868167513227876
tRp39
sa(dp40
g3
F1
sg4
I2
sg5
I11
sg6
F1
sS'v'
g7
(F-0.17868759105817753
F-0.99196537072626112
F-0.83618849755194202
tRp41
sg9
I1
sg10
I11
sg11
g7
(F2.6518114940565702
F1.0538343602962699
F3.246826226049714
tRp42
sa(dp43
g3
F0
sg4
I1
sg5
I12
sg6
F0.20000000000000001
sS'v'
g7
(F0
F0
F0
tRp44
sg9
I4
sg10
I12
sg11
g7
(F3.1322060094438626
F1.0940677189049761
F3.1141522405029178
tRp45
sa(dp46
g3
F1
sg4
I2
sg5
I13
sg6
F1
sS'v'
g7
(F-1.2827427710247796
F1.0345948600258617
F-2.1699495697005822
tRp47
sg9
I1
sg10
I13
sg11
g7
(F4.0607387258833052
F3.3326859232250827
F4.4790950208741611
tRp48
sa(dp49
g3
F0
sg4
I1
sg5
I14
sg6
F0.20000000000000001
sS'v'
g7
(F0
F0
F0
tRp50
sg9
I4
sg10
I14
sg11
g7
(F4.0139405047112273
F3.4037007938905006
F4.9718087457078655
tRp51
sa(dp52
g3
F1
sg4
I2
sg5
I15
sg6
F1
sS'v'
g7
(F-2.8410970365681156
F1.9706375573577264
F1.2251223876279274
tRp53
sg9
I1
sg10
I15
sg11
g7
(F2.1965312820581384
F3.1486422102061646
F3.8614360169633879
tRp54
sa(dp55
g3
F0
sg4
I1
sg5
I16
sg6
F0.20000000000000001
sS'v'
g7
(F0
F0
F0
tRp56
sg9
I4
sg10
I16
sg11
g7
(F2.2992697300835698
F3.3024059825235295
F3.3968916018424444
tRp57
sa(dp58
g3
F1
sg4
I2
sg5
I17
sg6
F1
sS'v'
g7
(F-2.3848831240533559
F0.40099314585218282
F-2.9732826384584716
tRp59
sg9
I1
sg10
I17
sg11
g7
(F4.6841438424724666
F4.8828817208830424
F0.39549567860126994
tRp60
sa(dp61
g3
F0
sg4
I1
sg5
I18
sg6
F0.20000000000000001
sS'v'
g7
(F0
F0
F0
tRp62
sg9
I4
sg10
I18
sg11
g7
(F5.1117774087271499
F5.1206654217708012
F0.4983958467470152
tRp63
sa(dp64
g3
F1
sg4
I2
sg5
I19
sg6
F1
sS'v'
g7
(F-0.86054978731154208
F0.78385239317103494
F-3.1225193951685948
tRp65
sg9
I1
sg10
I19
sg11
g7
(F3.0846821373837456
F2.9279644900764441
F4.2514254583729247
tRp66
sa(dp67
g3
F0
sg4
I1
sg5
I20
sg6
F0.20000000000000001
sS'v'
g7
(F0
F0
F0
tRp68
sg9
I4
sg10
I20
sg11
g7
(F2.82146315047792
F2.819396680577587
F4.6624349420504796
tRp69
sa(dp70
g3
F1
sg4
I2
sg5
I21
sg6
F1
sS'v'
g7
(F2.7919537974197799
F0.37501836006980122
F1.5841499680301956
tRp71
sg9
I1
sg10
I21
sg11
g7
(F1.3661352554806403
F4.1450622487364353
F2.2846417179588605
tRp72
sa(dp73
g3
F0
sg4
I1
sg5
I22
sg6
F0.20000000000000001
sS'v'
g7
(F0
F0
F0
tRp74
sg9
I4
sg10
I22
sg11
g7
(F1.1826518830726422
F3.7354725555876498
F2.0642553859959376
tRp75
sa(dp76
g3
F1
sg4
I2
sg5
I23
sg6
F1
sS'v'
g7
(F-1.386056505642852
F1.5553498933781178
F-0.86565073292975481
tRp77
sg9
I1
sg10
I23
sg11
g7
(F2.2483702964348788
F0.36031311006508215
F4.717879445728542
tRp78
sa(dp79
g3
F0
sg4
I1
sg5
I24
sg6
F0.20000000000000001
sS'v'
g7
(F0
F0
F0
tRp80
sg9
I4
sg10
I24
sg11
g7
(F2.1099330774842628
F0.83905562357092156
F4.7583855214620705
tRp81
sa(dp82
g3
F1
sg4
I2
sg5
I25
sg6
F1
sS'v'
g7
(F2.0437255207669476
F0.92118465436099894
F-1.1917300589142388
tRp83
sg9
I1
sg10
I25
sg11
g7
(F0.22196586125645415
F1.4203136093577764
F1.3333599739958937
tRp84
sa(dp85
g3
F0
sg4
I1
sg5
I26
sg6
F0.20000000000000001
sS'v'
g7
(F0
F0
F0
tRp86
sg9
I4
sg10
I26
sg11
g7
(F-0.19457369148475293
F1.2957849865443651
F1.5803162922028799
tRp87
sa(dp88
g3
F1
sg4
I2
sg5
I27
sg6
F1
sS'v'
g7
(F-0.25683855058497684
F1.2350201337559616
F-2.0289274227380454
tRp89
sg9
I1
sg10
I27
sg11
g7
(F4.436753818727353
F1.5984303857311761
F0.33661998639563201
tRp90
sa(dp91
g3
F0
sg4
I1
sg5
I28
sg6
F0.20000000000000001
sS'v'
g7
(F0
F0
F0
tRp92
sg9
I4
sg10
I28
sg11
g7
(F4.4784724415277042
F1.2415004115786417
F0.68427002603767373
tRp93
sa(dp94
g3
F1
sg4
I2
sg5
I29
sg6
F1
sS'v'
g7
(F-1.4589166737740527
F-1.2751744119591637
F0.0039031044383976586
tRp95
sg9
I1
sg10
I29
sg11
g7
(F4.0332305677857399
F0.61174016414513954
F0.37572468061201802
tRp96
sa(dp97
g3
F0
sg4
I1
sg5
I30
sg6
F0.20000000000000001
sS'v'
g7
(F0
F0
F0
tRp98
sg9
I4
sg10
I30
sg11
g7
(F4.2963932668208225
F0.56150605666823972
F-0.046438709892854979
tRp99
sa(dp100
g3
F1
sg4
I2
sg5
I31
sg6
F1
sS'v'
g7
(F2.1337686866912535
F1.860013218132007
F-1.1936803619602123
tRp101
sg9
I1
sg10
I31
sg11
g7
(F0.23130954225963615
F4.0844062442382718
F4.2367851971010815
tRp102
sa(dp103
g3
F0
sg4
I1
sg5
I32
sg6
F0.20000000000000001
sS'v'
g7
(F0
F0
F0
tRp104
sg9
I4
sg10
I32
sg11
g7
(F0.26522285324681066
F4.5342811745182079
F4.4523366629822245
tRp105
sa(dp106
g3
F1
sg4
I2
sg5
I33
sg6
F1
sS'v'
g7
(F-1.1854316330766168
F-0.45445270593338244
F-2.1984906911804938
tRp107
sg9
I1
sg10
I33
sg11
g7
(F1.992738286741184
F0.1719090014165939
F3.6097197927035971
tRp108
sa(dp109
g3
F0
sg4
I1
sg5
I34
sg6
F0.20000000000000001
sS'v'
g7
(F0
F0
F0
tRp110
sg9
I4
sg10
I34
sg11
g7
(F1.7175859353695961
F0.5537541493427397
F3.7784961729821958
tRp111
sa(dp112
g3
F1
sg4
I2
sg5
I35
sg6
F1
sS'v'
g7
(F-0.47543005713059078
F0.72609542396329785
F0.077836264607690844
tRp113
sg9
I1
sg10
I35
sg11
g7
(F2.8334050738997765
F1.0204618184871943
F4.2995599958587931
tRp114
sa(dp115
g3
F0
sg4
I1
sg5
I36
sg6
F0.20000000000000001
sS'v'
g7
(F0
F0
F0
tRp116
sg9
I4
sg10
I36
sg11
g7
(F3.1235994067669481
F0.83221237914677404
F4.660599325793628
tRp117
sa(dp118
g3
F1
sg4
I2
sg5
I37
sg6
F1
sS'v'
g7
(F0.51146162020071018
F-1.217518336752752
F0.53040371591830537
tRp119
sg9
I1
sg10
I37
sg11
g7
(F1.51433803817091
F1.9391956033086086
F2.3981514917834255
tRp120
sa(dp121
g3
F0
sg4
I1
sg5
I38
sg6
F0.20000000000000001
sS'v'
g7
(F0
F0
F0
tRp122
sg9
I4
sg10
I38
sg11
g7
(F1.6043501649360472
F2.3978588882588383
F2.5757065764019216
tRp123
sa(dp124
g3
F1
sg4
I2
sg5
I39
sg6
F1
sS'v'
g7
(F-0.32013150511393856
F-1.9953824545422449
F-0.68793963054370455
tRp125
sg9
I1
sg10
I39
sg11
g7
(F3.1136861909439668
F0.58839072358678413
F2.2155333941666879
tRp126
sa(dp127
g3
F0
sg4
I1
sg5
I40
sg6
F0.20000000000000001
sS'v'
g7
(F0
F0
F0
tRp128
sg9
I4
sg10
I40
sg11
g7
(F2.6453226888226111
F0.67895810870752449
F2.3653104906568063
tRp129
sa(dp130
g3
F1
sg4
I2
sg5
I41
sg6
F1
sS'v'
g7
(F1.3027238218484689
F-1.8607385188854881
F-1.9423312344393957
tRp131
sg9
I1
sg10
I41
sg11
g7
(F1.6967454758299119
F4.2311442321415464
F3.8059807782783945
tRp132
sa(dp133
g3
F0
sg4
I1
sg5
I42
sg6
F0.20000000000000001
sS'v'
g7
(F0
F0
F0
tRp134
sg9
I4
sg10
I42
sg11
g7
(F1.7549253070360684
F4.6264873456428113
F3.5054496986078396
tRp135
sa(dp136
g3
F1
sg4
I2
sg5
I43
sg6
F1
sS'v'
g7
(F0.7395621970496995
F-3.0720457208601539
F-0.34687975334305909
tRp137
sg9
I1
sg10
I43
sg11
g7
(F0.45506835479294977
F3.1054994795844029
F0.16485137293122312
tRp138
sa(dp139
g3
F0
sg4
I1
sg5
I44
sg6
F0.20000000000000001
sS'v'
g7
(F0
F0
F0
tRp140
sg9
I4
sg10
I44
sg11
g7
(F0.61877990487982193
F2.7801304227328294
F-0.17768841338807609
tRp141
sa(dp142
g3
F1
sg4
I2
sg5
I45
sg6
F1
sS'v'
g7
(F-1.8254350072514112
F0.49770387967222202
F-3.0527785356660306
tRp143
sg9
I1
sg10
I45
sg11
g7
(F2.8574615484371284
F4.0647851226843308
F3.9388967347736945
tRp144
sa(dp145
g3
F0
sg4
I1
sg5
I46
sg6
F0.20000000000000001
sS'v'
g7
(F0
F0
F0
tRp146
sg9
I4
sg10
I46
sg11
g7
(F2.6628624958634539
F4.1086622465657534
F4.3973790209498596
tRp147
sa(dp148
g3
F1
sg4
I2
sg5
I47
sg6
F1
sS'v'
g7
(F-2.0013825083054089
F-1.9092925512829688
F-0.39284452318705648
tRp149
sg9
I1
sg10
I47
sg11
g7
(F0.66811051057971138
F0.66469070656073359
F3.1508388980351238
tRp150
sa(dp151
g3
F0
sg4
I1
sg5
I48
sg6
F0.20000000000000001
sS'v'
g7
(F0
F0
F0
tRp152
sg9
I4
sg10
I48
sg11
g7
(F0.76550586763256823
F1.0506306331364104
F3.453435192624644
tRp153
sa(dp154
g3
F1
sg4
I2
sg5
I49
sg6
F1
sS'v'
g7
(F-0.076918295734782649
F3.8208292623006961
F-2.7961913010346988
tRp155
sg9
I1
sg10
I49
sg11
g7
(F4.0685927987513892
F4.2825053362054728
F3.7084142445942843
tRp156
sa(dp157
g3
F0
sg4
I1
sg5
I50
sg6
F0.20000000000000001
sS'v'
g7
(F0
F0
F0
tRp158
sg9
I4
sg10
I50
sg11
g7
(F4.1223624005573889
F3.8052716725208287
F3.8475431782053637
tRp159
sa(dp160
g3
F1
sg4
I2
sg5
I51
sg6
F1
sS'v'
g7
(F-0.61426166531875959
F-0.97056908095472494
F0.37518676996273959
tRp161
sg9
I1
sg10
I51
sg11
g7
(F1.6541712408343889
F0.99354523530608552
F3.0773096758350569
tRp162
sa(dp163
g3
F0
sg4
I1
sg5
I52
sg6
F0.20000000000000001
sS'v'
g7
(F0
F0
F0
tRp164
sg9
I4
sg10
I52
sg11
g7
(F1.6558960263158973
F0.9073000786299521
F2.584807088973879
tRp165
sa(dp166
g3
F1
sg4
I2
sg5
I53
sg6
F1
sS'v'
g7
(F0.043236911923653989
F1.3108187307967714
F-3.3535673443885896
tRp167
sg9
I1
sg10
I53
sg11
g7
(F3.1996404509435465
F3.5595023197974429
F2.1792828835763767
tRp168
sa(dp169
g3
F0
sg4
I1
sg5
I54
sg6
F0.20000000000000001
sS'v'
g7
(F0
F0
F0
tRp170
sg9
I4
sg10
I54
sg11
g7
(F3.137144949978548
F3.3257875825784726
F1.7417080511581928
tRp171
sa(dp172
g3
F1
sg4
I2
sg5
I55
sg6
F1
sS'v'
g7
(F2.617204326330699
F-1.1067640737573414
F0.26292630308646414
tRp173
sg9
I1
sg10
I55
sg11
g7
(F0.044882297758785356
F0.45350907654090233
F2.3978333134757102
tRp174
sa(dp175
g3
F0
sg4
I1
sg5
I56
sg6
F0.20000000000000001
sS'v'
g7
(F0
F0
F0
tRp176
sg9
I4
sg10
I56
sg11
g7
(F-0.26358079381999144
F0.18848543875719997
F2.6887164387159963
tRp177
sa(dp178
g3
F1
sg4
I2
sg5
I57
sg6
F1
sS'v'
g7
(F0.04312981679408625
F-3.4744874536511028
F1.5602288661960446
tRp179
sg9
I1
sg10
I57
sg11
g7
(F2.1031581773826695
F0.70595185652617498
F0.64928792289180104
tRp180
sa(dp181
g3
F0
sg4
I1
sg5
I58
sg6
F0.20000000000000001
sS'v'
g7
(F0
F0
F0
tRp182
sg9
I4
sg10
I58
sg11
g7
(F2.177194984962322
F1.1406819751669932
F0.41364354025144701
tRp183
sa(dp184
g3
F1
sg4
I2
sg5
I59
sg6
F1
sS'v'
g7
(F0.45622808134779841
F2.2894785509998044
F-0.95271632994751443
tRp185
sg9
I1
sg10
I59
sg11
g7
(F0.18901014143230288
F2.2291076577147795
F3.3491954526329137
tRp186
sa(dp187
g3
F0
sg4
I1
sg5
I60
sg6
F0.20000000000000001
sS'v'
g7
(F0
F0
F0
tRp188
sg9
I4
sg10
I60
sg11
g7
(F0.62918706003982217
F2.0997392121397707
F3.5479618623069209
tRp189
sa(dp190
g3
F1
sg4
I2
sg5
I61
sg6
F1
sS'v'
g7
(F-0.42133135774359332
F0.054634768199746143
F-0.59862761265375164
tRp191
sg9
I1
sg10
I61
sg11
g7
(F3.1449251954625241
F2.1204554257323824
F1.0112695154101661
tRp192
sa(dp193
g3
F0
sg4
I1
sg5
I62
sg6
F0.20000000000000001
sS'v'
g7
(F0
F0
F0
tRp194
sg9
I4
sg10
I62
sg11
g7
(F3.1020569310614041
F2.1591885679201659
F1.5079203541323982
tRp195
sa(dp196
g3
F1
sg4
I2
sg5
I63
sg6
F1
sS'v'
g7
(F1.3068584177087355
F-0.13994204591229839
F-2.8613237169152725
tRp197
sg9
I1
sg10
I63
sg11
g7
(F2.0795830989974129
F3.0413629094375874
F2.3122882667601532
tRp198
sa(dp199
g3
F0
sg4
I1
sg5
I64
sg6
F0.20000000000000001
sS'v'
g7
(F0
F0
F0
tRp200
sg9
I4
sg10
I64
sg11
g7
(F1.9076959648565279
F3.2265158532824056
F1.8808103409024901
tRp201
sa(dp202
g3
F1
sg4
I2
sg5
I65
sg6
F1
sS'v'
g7
(F1.2044227476420306
F2.8765274958937983
F2.5873498539431012
tRp203
sg9
I1
sg10
I65
sg11
g7
(F2.846234926578421
F3.169182396476713
F3.0556132559415405
tRp204
sa(dp205
g3
F0
sg4
I1
sg5
I66
sg6
F0.20000000000000001
sS'v'
g7
(F0
F0
F0
tRp206
sg9
I4
sg10
I66
sg11
g7
(F2.5647745562260202
F2.9215038929243482
F2.7248030100313656
tRp207
sa(dp208
g3
F1
sg4
I2
sg5
I67
sg6
F1
sS'v'
g7
(F3.7832262949609392
F-2.051820110520461
F-0.11790898949481091
tRp209
sg9
I1
sg10
I67
sg11
g7
(F5.0275688230578544
F0.61941679678220485
F4.7325599644107479
tRp210
sa(dp211
g3
F0
sg4
I1
sg5
I68
sg6
F0.20000000000000001
sS'v'
g7
(F0
F0
F0
tRp212
sg9
I4
sg10
I68
sg11
g7
(F4.7434482302542822
F0.81376888679763193
F5.0951930487419794
tRp213
sa(dp214
g3
F1
sg4
I2
sg5
I69
sg6
F1
sS'v'
g7
(F-0.4772880609823863
F-0.91871427589783572
F1.3248258057308488
tRp215
sg9
I1
sg10
I69
sg11
g7
(F1.6056410405762442
F3.5217898678957789
F3.1453645700611443
tRp216
sa(dp217
g3
F0
sg4
I1
sg5
I70
sg6
F0.20000000000000001
sS'v'
g7
(F0
F0
F0
tRp218
sg9
I4
sg10
I70
sg11
g7
(F1.4565026113340294
F3.6732241937375103
F2.6927881965284275
tRp219
sa(dp220
g3
F1
sg4
I2
sg5
I71
sg6
F1
sS'v'
g7
(F-0.83322561644032134
F1.102777938478235
F-1.2934275098637564
tRp221
sg9
I1
sg10
I71
sg11
g7
(F0.56799456625151568
F3.3152041948980302
F1.0128459139254702
tRp222
sa(dp223
g3
F0
sg4
I1
sg5
I72
sg6
F0.20000000000000001
sS'v'
g7
(F0
F0
F0
tRp224
sg9
I4
sg10
I72
sg11
g7
(F0.90073538733232561
F3.0629391221025459
F1.2878838731855646
tRp225
sa(dp226
g3
F1
sg4
I2
sg5
I73
sg6
F1
sS'v'
g7
(F-2.2987165149018054
F-1.865554680852207
F-1.7189644247952243
tRp227
sg9
I1
sg10
I73
sg11
g7
(F4.256898952053394
F2.3126424716202774
F3.0668630141010293
tRp228
sa(dp229
g3
F0
sg4
I1
sg5
I74
sg6
F0.20000000000000001
sS'v'
g7
(F0
F0
F0
tRp230
sg9
I4
sg10
I74
sg11
g7
(F4.4414493752257744
F2.7670292480572694
F3.1641964549427803
tRp231
sa(dp232
g3
F1
sg4
I2
sg5
I75
sg6
F1
sS'v'
g7
(F-1.9141205002979609
F1.0965608008509646
F0.56517638107764778
tRp233
sg9
I1
sg10
I75
sg11
g7
(F1.1084016772095295
F0.20321096855330939
F4.6309435110547641
tRp234
sa(dp235
g3
F0
sg4
I1
sg5
I76
sg6
F0.20000000000000001
sS'v'
g7
(F0
F0
F0
tRp236
sg9
I4
sg10
I76
sg11
g7
(F1.4633472686518469
F0.21559771304517969
F4.2790057386054903
tRp237
sa(dp238
g3
F1
sg4
I2
sg5
I77
sg6
F1
sS'v'
g7
(F0.80033403203381071
F1.0547197858787729
F-1.1157709497333257
tRp239
sg9
I1
sg10
I77
sg11
g7
(F3.8348070530531539
F1.1788747260346384
F2.7643650135166653
tRp240
sa(dp241
g3
F0
sg4
I1
sg5
I78
sg6
F0.20000000000000001
sS'v'
g7
(F0
F0
F0
tRp242
sg9
I4
sg10
I78
sg11
g7
(F4.2604725364810747
F1.4351465727125807
F2.7083861173293373
tRp243
sa(dp244
g3
F1
sg4
I2
sg5
I79
sg6
F1
sS'v'
g7
(F-0.16957239865015417
F2.7483452480305708
F0.525860733798313
tRp245
sg9
I1
sg10
I79
sg11
g7
(F0.41239302304240294
F4.1694422075628417
F0.49148760084788762
tRp246
sa(dp247
g3
F0
sg4
I1
sg5
I80
sg6
F0.20000000000000001
sS'v'
g7
(F0
F0
F0
tRp248
sg9
I4
sg10
I80
sg11
g7
(F0.70455846490337781
F3.7649253394745537
F0.4597786428986918
tRp249
sa(dp250
g3
F1
sg4
I2
sg5
I81
sg6
F1
sS'v'
g7
(F1.7684429489263238
F-0.37941771762630944
F1.5984396357834805
tRp251
sg9
I1
sg10
I81
sg11
g7
(F3.20346864966784
F4.8921633875628388
F3.5561195475870595
tRp252
sa(dp253
g3
F0
sg4
I1
sg5
I82
sg6
F0.20000000000000001
sS'v'
g7
(F0
F0
F0
tRp254
sg9
I4
sg10
I82
sg11
g7
(F3.616171667128441
F4.7390161915842794
F3.3190074311888882
tRp255
sa(dp256
g3
F1
sg4
I2
sg5
I83
sg6
F1
sS'v'
g7
(F0.46532128786220928
F-0.56877439108518735
F1.5092544362378564
tRp257
sg9
I1
sg10
I83
sg11
g7
(F1.1869294341800218
F1.4972659814312295
F4.7280425619424209
tRp258
sa(dp259
g3
F0
sg4
I1
sg5
I84
sg6
F0.20000000000000001
sS'v'
g7
(F0
F0
F0
tRp260
sg9
I4
sg10
I84
sg11
g7
(F0.92409015946517303
F1.7206764446329765
F5.0899863153066045
tRp261
sa(dp262
g3
F1
sg4
I2
sg5
I85
sg6
F1
sS'v'
g7
(F-0.51652330014297787
F0.035298795904721972
F3.2810814919351308
tRp263
sg9
I1
sg10
I85
sg11
g7
(F2.3852741121257139
F0.048346062061476527
F2.7930339658596486
tRp264
sa(dp265
g3
F0
sg4
I1
sg5
I86
sg6
F0.20000000000000001
sS'v'
g7
(F0
F0
F0
tRp266
sg9
I4
sg10
I86
sg11
g7
(F2.2734137444806546
F-0.060201950830499174
F2.3179501974066361
tRp267
sa(dp268
g3
F1
sg4
I2
sg5
I87
sg6
F1
sS'v'
g7
(F-0.10532166314981001
F2.3679119046587953
F-0.24987669243680777
tRp269
sg9
I1
sg10
I87
sg11
g7
(F4.1289832753807385
F0.49445647572167006
F1.8848369103297482
tRp270
sa(dp271
g3
F0
sg4
I1
sg5
I88
sg6
F0.20000000000000001
sS'v'
g7
(F0
F0
F0
tRp272
sg9
I4
sg10
I88
sg11
g7
(F4.132938112616988
F0.064395768844217438
F2.1398509249691413
tRp273
sa(dp274
g3
F1
sg4
I2
sg5
I89
sg6
F1
sS'v'
g7
(F-0.9289432926961454
F-1.127236252398492
F-0.88937748405548589
tRp275
sg9
I1
sg10
I89
sg11
g7
(F4.8735151304321711
F1.6196084214000539
F4.3887996796154178
tRp276
sa(dp277
g3
F0
sg4
I1
sg5
I90
sg6
F0.20000000000000001
sS'v'
g7
(F0
F0
F0
tRp278
sg9
I4
sg10
I90
sg11
g7
(F4.8773287184895162
F1.841234664791171
F4.836981857737741
tRp279
sa(dp280
g3
F1
sg4
I2
sg5
I91
sg6
F1
sS'v'
g7
(F0.93043715949979844
F1.8860903658721098
F0.4362167714811846
tRp281
sg9
I1
sg10
I91
sg11
g7
(F4.0741884510494151
F1.9505745215156287
F3.9658241514948629
tRp282
sa(dp283
g3
F0
sg4
I1
sg5
I92
sg6
F0.20000000000000001
sS'v'
g7
(F0
F0
F0
tRp284
sg9
I4
sg10
I92
sg11
g7
(F4.073533786047995
F2.3745737643116049
F4.2308226675702834
tRp285
sa(dp286
g3
F1
sg4
I2
sg5
I93
sg6
F1
sS'v'
g7
(F1.5551402082783685
F2.462227417229621
F2.1140051461105998
tRp287
sg9
I1
sg10
I93
sg11
g7
(F0.59012361443865824
F4.3287044413191538
F1.5838574450409475
tRp288
sa(dp289
g3
F0
sg4
I1
sg5
I94
sg6
F0.20000000000000001
sS'v'
g7
(F0
F0
F0
tRp290
sg9
I4
sg10
I94
sg11
g7
(F0.30823355416874304
F4.0055482999730883
F1.3267424858663692
tRp291
sa(dp292
g3
F1
sg4
I2
sg5
I95
sg6
F1
sS'v'
g7
(F2.1300112328721292
F1.6193919059160717
F-1.1958575221678067
tRp293
sg9
I1
sg10
I95
sg11
g7
(F3.5084438253394872
F4.0365521283259644
F2.8868329807674171
tRp294
sa(dp295
g3
F0
sg4
I1
sg5
I96
sg6
F0.20000000000000001
sS'v'
g7
(F0
F0
F0
tRp296
sg9
I4
sg10
I96
sg11
g7
(F3.4095087948296743
F3.5832786038242395
F3.0732598343154152
tRp297
sa(dp298
g3
F1
sg4
I2
sg5
I97
sg6
F1
sS'v'
g7
(F1.5689053748291166
F0.63662515796260621
F0.3547325018775902
tRp299
sg9
I1
sg10
I97
sg11
g7
(F3.9116519075368834
F1.2536256896263345
F1.3049295936573191
tRp300
sa(dp301
g3
F0
sg4
I1
sg5
I98
sg6
F0.20000000000000001
sS'v'
g7
(F0
F0
F0
tRp302
sg9
I4
sg10
I98
sg11
g7
(F3.6302832838051784
F1.3379141514423456
F0.90029747335046928
tRp303
sa(dp304
g3
F1
sg4
I2
sg5
I99
sg6
F1
sS'v'
g7
(F0.35661164842605858
F0.96522419295256889
F0.23237665722805059
tRp305
sg9
I1
sg10
I99
sg11
g7
(F4.1983685387762302
F0.234907812794795
F4.1193574929767545
tRp306
sa(dp307
g3
F0
sg4
I1
sg5
I100
sg6
F0.20000000000000001
sS'v'
g7
(F0
F0
F0
tRp308
sg9
I4
sg10
I100
sg11
g7
(F4.1413546738553588
F-0.23304594404044648
F4.2859969260967947
tRp309
sa(dp310
g3
F1
sg4
I2
sg5
I101
sg6
F1
sS'v'
g7
(F-1.4996631415351027
F-1.6385890969126724
F-1.3612834564273006
tRp311
sg9
I1
sg10
I101
sg11
g7
(F4.83977146382664
F2.758937787507953
F4.2709711330441218
tRp312
sa(dp313
g3
F0
sg4
I1
sg5
I102
sg6
F0.20000000000000001
sS'v'
g7
(F0
F0
F0
tRp314
sg9
I4
sg10
I102
sg11
g7
(F5.2263156347561752
F3.0340944577217996
F4.4286810273349584
tRp315
sa(dp316
g3
F1
sg4
I2
sg5
I103
sg6
F1
sS'v'
g7
(F-0.19247201433794528
F-1.6323783534977594
F-0.2864310824182586
tRp317
sg9
I1
sg10
I103
sg11
g7
(F0.01099199562870876
F2.1089866829023838
F2.2235655823971445
tRp318
sa(dp319
g3
F0
sg4
I1
sg5
I104
sg6
F0.20000000000000001
sS'v'
g7
(F0
F0
F0
tRp320
sg9
I4
sg10
I104
sg11
g7
(F-0.0498290882278659
F2.4689024254895466
F2.5652693342004316
tRp321
sa(dp322
g3
F1
sg4
I2
sg5
I105
sg6
F1
sS'v'
g7
(F-1.6128981410464449
F1.2989347626708285
F0.72763078188512398
tRp323
sg9
I1
sg10
I105
sg11
g7
(F4.7704285695673683
F1.2576181664794805
F3.26302376020901
tRp324
sa(dp325
g3
F0
sg4
I1
sg5
I106
sg6
F0.20000000000000001
sS'v'
g7
(F0
F0
F0
tRp326
sg9
I4
sg10
I106
sg11
g7
(F4.6602560465956824
F0.94180695830236405
F3.6346758770760652
tRp327
sa(dp328
g3
F1
sg4
I2
sg5
I107
sg6
F1
sS'v'
g7
(F1.4741429849054319
F-2.0078824665785184
F1.488136416510913
tRp329
sg9
I1
sg10
I107
sg11
g7
(F3.5130024802487321
F2.3150381179957762
F2.0573191349397977
tRp330
sa(dp331
g3
F0
sg4
I1
sg5
I108
sg6
F0.20000000000000001
sS'v'
g7
(F0
F0
F0
tRp332
sg9
I4
sg10
I108
sg11
g7
(F3.4820408326896666
F1.8582293692561476
F1.8564033728518941
tRp333
sa(dp334
g3
F1
sg4
I2
sg5
I109
sg6
F1
sS'v'
g7
(F-1.4486873357534142
F2.6525863218304537
F2.6277982119249765
tRp335
sg9
I1
sg10
I109
sg11
g7
(F4.153365269278515
F3.4418878630185299
F2.5384032211215266
tRp336
sa(dp337
g3
F0
sg4
I1
sg5
I110
sg6
F0.20000000000000001
sS'v'
g7
(F0
F0
F0
tRp338
sg9
I4
sg10
I110
sg11
g7
(F3.7842538790784017
F3.1945571412943021
F2.3090905618200557
tRp339
sa(dp340
g3
F1
sg4
I2
sg5
I111
sg6
F1
sS'v'
g7
(F-0.3704107337725992
F2.0382124206702832
F2.060001515301074
tRp341
sg9
I1
sg10
I111
sg11
g7
(F0.46554727407515312
F1.8364708634368032
F0.28719687222577084
tRp342
sa(dp343
g3
F0
sg4
I1
sg5
I112
sg6
F0.20000000000000001
sS'v'
g7
(F0
F0
F0
tRp344
sg9
I4
sg10
I112
sg11
g7
(F0.48907181167747515
F2.0964615033163172
F0.7136373291545639
tRp345
sa(dp346
g3
F1
sg4
I2
sg5
I113
sg6
F1
sS'v'
g7
(F-0.55111323831540238
F0.75660410480352958
F0.85362470715302408
tRp347
sg9
I1
sg10
I113
sg11
g7
(F1.6596975893085815
F4.0180267597851893
F0.98819595295338292
tRp348
sa(dp349
g3
F0
sg4
I1
sg5
I114
sg6
F0.20000000000000001
sS'v'
g7
(F0
F0
F0
tRp350
sg9
I4
sg10
I114
sg11
g7
(F1.6571714028731712
F3.7048693110279611
F0.5984190543691319
tRp351
sa(dp352
g3
F1
sg4
I2
sg5
I115
sg6
F1
sS'v'
g7
(F2.5359744569676841
F1.6450650977249897
F-1.5680331763669118
tRp353
sg9
I1
sg10
I115
sg11
g7
(F1.8900131129376359
F1.2267611787938675
F4.0375035494818539
tRp354
sa(dp355
g3
F0
sg4
I1
sg5
I116
sg6
F0.20000000000000001
sS'v'
g7
(F0
F0
F0
tRp356
sg9
I4
sg10
I116
sg11
g7
(F1.3963948807636639
F1.2401381372377198
F4.1160025803563443
tRp357
sa(dp358
g3
F1
sg4
I2
sg5
I117
sg6
F1
sS'v'
g7
(F1.9041651594117557
F0.98864691857858
F-4.5414131671429656
tRp359
sg9
I1
sg10
I117
sg11
g7
(F2.9118179714764616
F1.1491947602012695
F1.335967610705437
tRp360
sa(dp361
g3
F0
sg4
I1
sg5
I118
sg6
F0.20000000000000001
sS'v'
g7
(F0
F0
F0
tRp362
sg9
I4
sg10
I118
sg11
g7
(F3.0725151853178483
F1.5603329714620666
F1.5707904731036453
tRp363
sa(dp364
g3
F1
sg4
I2
sg5
I119
sg6
F1
sS'v'
g7
(F3.4957820892746296
F0.15531461322595477
F-1.4297397159221334
tRp365
sg9
I1
sg10
I119
sg11
g7
(F0.061239875955383265
F0.071930960904016392
F1.4289279145099916
tRp366
sa(dp367
g3
F0
sg4
I1
sg5
I120
sg6
F0.20000000000000001
sS'v'
g7
(F0
F0
F0
tRp368
sg9
I4
sg10
I120
sg11
g7
(F-0.4292132882560088
F0.011131294663716193
F1.3530392177225161
tRp369
sa(dp370
g3
F1
sg4
I2
sg5
I121
sg6
F1
sS'v'
g7
(F-0.94197206363370378
F-2.7146912403209256
F0.94106106884766039
tRp371
sg9
I1
sg10
I121
sg11
g7
(F2.2935885298853083
F4.7574802662959863
F0.64199938588125838
tRp372
sa(dp373
g3
F0
sg4
I1
sg5
I122
sg6
F0.20000000000000001
sS'v'
g7
(F0
F0
F0
tRp374
sg9
I4
sg10
I122
sg11
g7
(F2.2804513756264742
F5.2158844252225798
F0.84123051361179724
tRp375
sa(dp376
g3
F1
sg4
I2
sg5
I123
sg6
F1
sS'v'
g7
(F-0.45061716281799347
F-2.1712859028413733
F-0.9380296072971982
tRp377
sg9
I1
sg10
I123
sg11
g7
(F4.4116596290482555
F2.8660234083443865
F0.27289952544532542
tRp378
sa(dp379
g3
F0
sg4
I1
sg5
I124
sg6
F0.20000000000000001
sS'v'
g7
(F0
F0
F0
tRp380
sg9
I4
sg10
I124
sg11
g7
(F3.9999574204660249
F3.1237647685473839
F0.39151943393130428
tRp381
sa(dp382
g3
F1
sg4
I2
sg5
I125
sg6
F1
sS'v'
g7
(F-0.0013089617543806352
F-0.36055922133967677
F-3.3566617542996835
tRp383
sg9
I1
sg10
I125
sg11
g7
(F0.0010999287460651918
F4.4110044530531152
F2.3904239852352891
tRp384
sa(dp385
g3
F0
sg4
I1
sg5
I126
sg6
F0.20000000000000001
sS'v'
g7
(F0
F0
F0
tRp386
sg9
I4
sg10
I126
sg11
g7
(F-0.4057059806064206
F4.1263421315123923
F2.3314637035963472
tRp387
sa(dp388
g3
F1
sg4
I2
sg5
I127
sg6
F1
sS'v'
g7
(F-2.7567962410495035
F-3.7555315005591408
F1.1425426956743445
tRp389
sg9
I1
sg10
I127
sg11
g7
(F4.7712476990819388
F4.7764042215581171
F3.2727718749894295
tRp390
sa(dp391
g3
F0
sg4
I1
sg5
I128
sg6
F0.20000000000000001
sS'v'
g7
(F0
F0
F0
tRp392
sg9
I4
sg10
I128
sg11
g7
(F5.1591306278017965
F4.700457985253669
F3.5790054505471964
tRp393
sa(dp394
g3
F1
sg4
I2
sg5
I129
sg6
F1
sS'v'
g7
(F-0.11791942335798355
F0.35902011298276942
F-0.60927538789051361
tRp395
sg9
I1
sg10
I129
sg11
g7
(F2.5142057169180667
F4.0579810101904803
F2.6535493408867237
tRp396
sa(dp397
g3
F0
sg4
I1
sg5
I130
sg6
F0.20000000000000001
sS'v'
g7
(F0
F0
F0
tRp398
sg9
I4
sg10
I130
sg11
g7
(F2.4133900807302204
F4.544817037365485
F2.6003808338125363
tRp399
sa(dp400
g3
F1
sg4
I2
sg5
I131
sg6
F1
sS'v'
g7
(F-1.6840409926994262
F1.108925970767489
F0.89363652706742358
tRp401
sg9
I1
sg10
I131
sg11
g7
(F3.2742902205024702
F1.8585835885684756
F3.27663482320221
tRp402
sa(dp403
g3
F0
sg4
I1
sg5
I132
sg6
F0.20000000000000001
sS'v'
g7
(F0
F0
F0
tRp404
sg9
I4
sg10
I132
sg11
g7
(F3.3908978183370708
F2.3088647972829994
F3.0931968194902431
tRp405
sa(dp406
g3
F1
sg4
I2
sg5
I133
sg6
F1
sS'v'
g7
(F-1.2999319650116288
F-0.78596403146236404
F-0.21597179084495541
tRp407
sg9
I1
sg10
I133
sg11
g7
(F0.12944046079285498
F3.1930406435989234
F3.3742833630996327
tRp408
sa(dp409
g3
F0
sg4
I1
sg5
I134
sg6
F0.20000000000000001
sS'v'
g7
(F0
F0
F0
tRp410
sg9
I4
sg10
I134
sg11
g7
(F0.20629616464315026
F3.5068403189963755
F2.9926775920398523
tRp411
sa(dp412
g3
F1
sg4
I2
sg5
I135
sg6
F1
sS'v'
g7
(F1.3888933410312507
F-0.6749979642875823
F4.1588117952254162
tRp413
sg9
I1
sg10
I135
sg11
g7
(F4.3771383400149322
F2.2133482881995565
F1.1428586073527129
tRp414
sa(dp415
g3
F0
sg4
I1
sg5
I136
sg6
F0.20000000000000001
sS'v'
g7
(F0
F0
F0
tRp416
sg9
I4
sg10
I136
sg11
g7
(F4.0180575855363436
F2.5167394395465674
F1.3131959815470529
tRp417
sa(dp418
g3
F1
sg4
I2
sg5
I137
sg6
F1
sS'v'
g7
(F-1.2632383063919554
F0.35101761102002582
F-1.1221406455133593
tRp419
sg9
I1
sg10
I137
sg11
g7
(F2.599421388205946
F1.5964077293315648
F2.2756288849233326
tRp420
sa(dp421
g3
F0
sg4
I1
sg5
I138
sg6
F0.20000000000000001
sS'v'
g7
(F0
F0
F0
tRp422
sg9
I4
sg10
I138
sg11
g7
(F2.6284108883751585
F2.0515625479696356
F2.070705240727539
tRp423
sa(dp424
g3
F1
sg4
I2
sg5
I139
sg6
F1
sS'v'
g7
(F0.95891861749247231
F-2.4778699779047422
F0.19622974693742715
tRp425
sg9
I1
sg10
I139
sg11
g7
(F0.87481028841427722
F0.56813879238380482
F1.6526298444692076
tRp426
sa(dp427
g3
F0
sg4
I1
sg5
I140
sg6
F0.20000000000000001
sS'v'
g7
(F0
F0
F0
tRp428
sg9
I4
sg10
I140
sg11
g7
(F0.54998848482431006
F0.29927396462000022
F1.3839246150744291
tRp429
sa(dp430
g3
F1
sg4
I2
sg5
I141
sg6
F1
sS'v'
g7
(F-0.37013238920113051
F-1.6781886114240168
F1.6122484225254581
tRp431
sg9
I1
sg10
I141
sg11
g7
(F3.6513429038698764
F1.0132925983268484
F3.7893526135313031
tRp432
sa(dp433
g3
F0
sg4
I1
sg5
I142
sg6
F0.20000000000000001
sS'v'
g7
(F0
F0
F0
tRp434
sg9
I4
sg10
I142
sg11
g7
(F3.9118477343876217
F0.64539471260947234
F4.0056588292570776
tRp435
sa(dp436
g3
F1
sg4
I2
sg5
I143
sg6
F1
sS'v'
g7
(F1.0716196178579538
F0.075656583785473491
F-1.9324867699955923
tRp437
sg9
I1
sg10
I143
sg11
g7
(F2.7354526569880617
F1.9208092702001167
F3.9977722412933372
tRp438
sa(dp439
g3
F0
sg4
I1
sg5
I144
sg6
F0.20000000000000001
sS'v'
g7
(F0
F0
F0
tRp440
sg9
I4
sg10
I144
sg11
g7
(F3.0813408580790975
F1.5633591096045665
F4.0486715049051272
tRp441
sa(dp442
g3
F1
sg4
I2
sg5
I145
sg6
F1
sS'v'
g7
(F0.17672503861255087
F1.9457372841211873
F1.3439143185144953
tRp443
sg9
I1
sg10
I145
sg11
g7
(F1.2533799401275063
F4.9706448731192063
F0.69141676066091928
tRp444
sa(dp445
g3
F0
sg4
I1
sg5
I146
sg6
F0.20000000000000001
sS'v'
g7
(F0
F0
F0
tRp446
sg9
I4
sg10
I146
sg11
g7
(F1.5416938908447837
F4.6789319341419855
F0.40544713455516068
tRp447
sa(dp448
g3
F1
sg4
I2
sg5
I147
sg6
F1
sS'v'
g7
(F-0.22282396895335577
F-0.47998189968877358
F1.9917937402897672
tRp449
sg9
I1
sg10
I147
sg11
g7
(F0.69971426377923118
F2.7610983189707552
F2.6429826116398503
tRp450
sa(dp451
g3
F0
sg4
I1
sg5
I148
sg6
F0.20000000000000001
sS'v'
g7
(F0
F0
F0
tRp452
sg9
I4
sg10
I148
sg11
g7
(F0.65806370650776058
F2.5981971838382654
F3.1138631179803893
tRp453
sa(dp454
g3
F1
sg4
I2
sg5
I149
sg6
F1
sS'v'
g7
(F1.4002163779007577
F1.4974971877563732
F1.204213925417088
tRp455
sg9
I1
sg10
I149
sg11
g7
(F0.11786395190544939
F3.0951639700635143
F1.8892310262163641
tRp456
sa(dp457
g3
F0
sg4
I1
sg5
I150
sg6
F0.20000000000000001
sS'v'
g7
(F0
F0
F0
tRp458
sg9
I4
sg10
I150
sg11
g7
(F0.18719827076831314
F2.6538199485189429
F1.6647133055912702
tRp459
sa(dp460
g3
F1
sg4
I2
sg5
I151
sg6
F1
sS'v'
g7
(F-1.0144898880906106
F-1.0610142985547546
F1.1390598680770752
tRp461
sg9
I1
sg10
I151
sg11
g7
(F3.3686641025652633
F4.4901940167980667
F0.59058397447493471
tRp462
sa(dp463
g3
F0
sg4
I1
sg5
I152
sg6
F0.20000000000000001
sS'v'
g7
(F0
F0
F0
tRp464
sg9
I4
sg10
I152
sg11
g7
(F2.9422007507227477
F4.4025993501078675
F0.34470558196619949
tRp465
sa(dp466
g3
F1
sg4
I2
sg5
I153
sg6
F1
sS'v'
g7
(F1.5928695254102103
F1.9556053787081982
F0.76137661369034026
tRp467
sg9
I1
sg10
I153
sg11
g7
(F1.6242698317947761
F4.7796669499005295
F1.4997752390708741
tRp468
sa(dp469
g3
F0
sg4
I1
sg5
I154
sg6
F0.20000000000000001
sS'v'
g7
(F0
F0
F0
tRp470
sg9
I4
sg10
I154
sg11
g7
(F1.4388804629072545
F4.3687932154188811
F1.2834108329949432
tRp471
sa(dp472
g3
F1
sg4
I2
sg5
I155
sg6
F1
sS'v'
g7
(F0.84580898541694216
F0.063724816963920156
F-0.10259521099803544
tRp473
sg9
I1
sg10
I155
sg11
g7
(F4.6344640017575269
F4.0163310523241167
F1.4857498727926326
tRp474
sa(dp475
g3
F0
sg4
I1
sg5
I156
sg6
F0.20000000000000001
sS'v'
g7
(F0
F0
F0
tRp476
sg9
I4
sg10
I156
sg11
g7
(F4.1633087547658469
F3.9990228013049234
F1.6522225662857879
tRp477
sa(dp478
g3
F1
sg4
I2
sg5
I157
sg6
F1
sS'v'
g7
(F-0.27211476521181421
F-4.6774792284439775
F1.1901714625240174
tRp479
sg9
I1
sg10
I157
sg11
g7
(F0.93940222583919841
F3.3483050593842867
F4.0334316190973487
tRp480
sa(dp481
g3
F0
sg4
I1
sg5
I158
sg6
F0.20000000000000001
sS'v'
g7
(F0
F0
F0
tRp482
sg9
I4
sg10
I158
sg11
g7
(F1.1094158540256416
F3.7827117764790326
F4.2133931993689373
tRp483
sa(dp484
g3
F1
sg4
I2
sg5
I159
sg6
F1
sS'v'
g7
(F-0.41300830422785689
F0.63660568730566314
F1.5270955877222898
tRp485
sg9
I1
sg10
I159
sg11
g7
(F0.78721228790985232
F1.4553795274002619
F2.1140374289046093
tRp486
sa(dp487
g3
F0
sg4
I1
sg5
I160
sg6
F0.20000000000000001
sS'v'
g7
(F0
F0
F0
tRp488
sg9
I4
sg10
I160
sg11
g7
(F0.80848199687810829
F1.65737727599281
F2.5709230918925687
tRp489
sa(dp490
g3
F1
sg4
I2
sg5
I161
sg6
F1
sS'v'
g7
(F1.0937368121797522
F0.37107262329343449
F-0.30346898347283191
tRp491
sg9
I1
sg10
I161
sg11
g7
(F4.1801498289801877
F4.0562798291200046
F0.16968708347498554
tRp492
sa(dp493
g3
F0
sg4
I1
sg5
I162
sg6
F0.20000000000000001
sS'v'
g7
(F0
F0
F0
tRp494
sg9
I4
sg10
I162
sg11
g7
(F4.5231695717994542
F4.4175424741734188
F0.21242766518855921
tRp495
sa(dp496
g3
F1
sg4
I2
sg5
I163
sg6
F1
sS'v'
g7
(F0.26378020853914547
F2.2346071535455665
F3.1353555395726329
tRp497
sg9
I1
sg10
I163
sg11
g7
(F1.3252007510483905
F0.22056226554429173
F2.5024686099116877
tRp498
sa(dp499
g3
F0
sg4
I1
sg5
I164
sg6
F0.20000000000000001
sS'v'
g7
(F0
F0
F0
tRp500
sg9
I4
sg10
I164
sg11
g7
(F1.1032042169595011
F-0.11724352982092659
F2.2081817031859674
tRp501
sa(dp502
g3
F1
sg4
I2
sg5
I165
sg6
F1
sS'v'
g7
(F-1.5666778686918692
F3.2424015108307875
F-1.4052631513131302
tRp503
sg9
I1
sg10
I165
sg11
g7
(F3.3401938663418536
F0.35039589649024683
F1.1181108511945628
tRp504
sa(dp505
g3
F0
sg4
I1
sg5
I166
sg6
F0.20000000000000001
sS'v'
g7
(F0
F0
F0
tRp506
sg9
I4
sg10
I166
sg11
g7
(F3.2471031236493695
F0.11136643588000147
F1.5472949965044016
tRp507
sa(dp508
g3
F1
sg4
I2
sg5
I167
sg6
F1
sS'v'
g7
(F-0.82008785541999774
F0.93785967779099122
F0.39390273829344552
tRp509
sg9
I1
sg10
I167
sg11
g7
(F1.7665067137235353
F1.7690271216810003
F1.3756879659680015
tRp510
sa(dp511
g3
F0
sg4
I1
sg5
I168
sg6
F0.20000000000000001
sS'v'
g7
(F0
F0
F0
tRp512
sg9
I4
sg10
I168
sg11
g7
(F1.7282253880746177
F1.6071183013038424
F0.90417966912621872
tRp513
sa(dp514
g3
F1
sg4
I2
sg5
I169
sg6
F1
sS'v'
g7
(F1.5323314416466163
F-1.0099370626591322
F1.1978292029957631
tRp515
sg9
I1
sg10
I169
sg11
g7
(F2.5259097235589176
F2.9713065812054613
F1.1867768745349603
tRp516
sa(dp517
g3
F0
sg4
I1
sg5
I170
sg6
F0.20000000000000001
sS'v'
g7
(F0
F0
F0
tRp518
sg9
I4
sg10
I170
sg11
g7
(F2.4025062042922145
F2.4894543399900773
F1.2376688097340034
tRp519
sa(dp520
g3
F1
sg4
I2
sg5
I171
sg6
F1
sS'v'
g7
(F-1.3564758096110703
F2.758728988867579
F0.099174712169180293
tRp521
sg9
I1
sg10
I171
sg11
g7
(F1.5535760547670163
F4.2606280173701752
F4.8323242012948544
tRp522
sa(dp523
g3
F0
sg4
I1
sg5
I172
sg6
F0.20000000000000001
sS'v'
g7
(F0
F0
F0
tRp524
sg9
I4
sg10
I172
sg11
g7
(F1.8865170005102487
F4.5548335648092415
F4.6029916425429818
tRp525
sa(dp526
g3
F1
sg4
I2
sg5
I173
sg6
F1
sS'v'
g7
(F0.32583090856679592
F0.054626212509624322
F0.62929836384049875
tRp527
sg9
I1
sg10
I173
sg11
g7
(F3.6265636105122856
F1.2773069926797795
F4.7196298913582231
tRp528
sa(dp529
g3
F0
sg4
I1
sg5
I174
sg6
F0.20000000000000001
sS'v'
g7
(F0
F0
F0
tRp530
sg9
I4
sg10
I174
sg11
g7
(F3.8090997112330887
F1.5730304917447562
F4.3601466733432348
tRp531
sa(dp532
g3
F1
sg4
I2
sg5
I175
sg6
F1
sS'v'
g7
(F-1.7978772026048155
F0.77932932100766461
F-1.4531223261255384
tRp533
sg9
I1
sg10
I175
sg11
g7
(F2.2198995452969932
F0.74360610190021614
F1.9240412615594773
tRp534
sa(dp535
g3
F0
sg4
I1
sg5
I176
sg6
F0.20000000000000001
sS'v'
g7
(F0
F0
F0
tRp536
sg9
I4
sg10
I176
sg11
g7
(F1.7219375341815835
F0.71688823227015841
F1.887709582155302
tRp537
sa(dp538
g3
F1
sg4
I2
sg5
I177
sg6
F1
sS'v'
g7
(F1.8200116430175488
F-0.51295672861687025
F-0.57116989572838617
tRp539
sg9
I1
sg10
I177
sg11
g7
(F1.3893188792623841
F2.1479715678760178
F0.47387000112323041
tRp540
sa(dp541
g3
F0
sg4
I1
sg5
I178
sg6
F0.20000000000000001
sS'v'
g7
(F0
F0
F0
tRp542
sg9
I4
sg10
I178
sg11
g7
(F1.5843222107416091
F2.57066769030591
F0.65635750424258643
tRp543
sa(dp544
g3
F1
sg4
I2
sg5
I179
sg6
F1
sS'v'
g7
(F2.6652879974218271
F0.15625081311728309
F0.7426919496981701
tRp545
sg9
I1
sg10
I179
sg11
g7
(F3.3999338084177588
F3.116279377810296
F0.41018187448013993
tRp546
sa(dp547
g3
F0
sg4
I1
sg5
I180
sg6
F0.20000000000000001
sS'v'
g7
(F0
F0
F0
tRp548
sg9
I4
sg10
I180
sg11
g7
(F2.9471744713706114
F3.24544591116973
F0.24188157924411302
tRp549
sa(dp550
g3
F1
sg4
I2
sg5
I181
sg6
F1
sS'v'
g7
(F-2.0248781945292444
F0.67538210151590028
F0.24117087233420487
tRp551
sg9
I1
sg10
I181
sg11
g7
(F3.9119101312054489
F4.9702467687127685
F2.9156522993842975
tRp552
sa(dp553
g3
F0
sg4
I1
sg5
I182
sg6
F0.20000000000000001
sS'v'
g7
(F0
F0
F0
tRp554
sg9
I4
sg10
I182
sg11
g7
(F4.3083040234994296
F4.7022174413679725
F3.0606769932647668
tRp555
sa(dp556
g3
F1
sg4
I2
sg5
I183
sg6
F1
sS'v'
g7
(F3.8990191319156962
F-0.10221226392875937
F1.5999097581270512
tRp557
sg9
I1
sg10
I183
sg11
g7
(F2.3032447643745555
F2.3680372494582058
F3.2077457789275514
tRp558
sa(dp559
g3
F0
sg4
I1
sg5
I184
sg6
F0.20000000000000001
sS'v'
g7
(F0
F0
F0
tRp560
sg9
I4
sg10
I184
sg11
g7
(F2.2636899954652985
F1.8697480658523185
F3.1957745735616125
tRp561
sa(dp562
g3
F1
sg4
I2
sg5
I185
sg6
F1
sS'v'
g7
(F3.3378287845598464
F1.622582972488587
F0.60145755762741615
tRp563
sg9
I1
sg10
I185
sg11
g7
(F3.244965330963471
F4.8062374481216432
F4.4528463207167848
tRp564
sa(dp565
g3
F0
sg4
I1
sg5
I186
sg6
F0.20000000000000001
sS'v'
g7
(F0
F0
F0
tRp566
sg9
I4
sg10
I186
sg11
g7
(F3.4778338163601554
F4.5746807503689269
F4.075813478334438
tRp567
sa(dp568
g3
F1
sg4
I2
sg5
I187
sg6
F1
sS'v'
g7
(F-1.1884117193982273
F-3.3857104347002056
F-0.074255964995759607
tRp569
sg9
I1
sg10
I187
sg11
g7
(F3.6364411106500856
F2.2352561554461827
F4.8184517451093889
tRp570
sa(dp571
g3
F0
sg4
I1
sg5
I188
sg6
F0.20000000000000001
sS'v'
g7
(F0
F0
F0
tRp572
sg9
I4
sg10
I188
sg11
g7
(F4.0098121520405208
F2.324446198333455
F5.1388252797541663
tRp573
sa(dp574
g3
F1
sg4
I2
sg5
I189
sg6
F1
sS'v'
g7
(F1.2450900127855686
F-0.29872042322397258
F1.4434950742024482
tRp575
sg9
I1
sg10
I189
sg11
g7
(F2.5307203791411883
F4.1820272342726224
F1.4185952256790346
tRp576
sa(dp577
g3
F0
sg4
I1
sg5
I190
sg6
F0.20000000000000001
sS'v'
g7
(F0
F0
F0
tRp578
sg9
I4
sg10
I190
sg11
g7
(F2.5923849470829223
F4.6781432137538221
F1.4104456266723733
tRp579
sa(dp580
g3
F1
sg4
I2
sg5
I191
sg6
F1
sS'v'
g7
(F0.064485491725435024
F-3.7881977046353659
F-1.1969170258949877
tRp581
sg9
I1
sg10
I191
sg11
g7
(F1.2626278820005077
F2.0230050923506551
F3.6734901983177686
tRp582
sa(dp583
g3
F0
sg4
I1
sg5
I192
sg6
F0.20000000000000001
sS'v'
g7
(F0
F0
F0
tRp584
sg9
I4
sg10
I192
sg11
g7
(F1.1555032644702143
F2.5105683021280374
F3.6450924380088212
tRp585
sa(dp586
g3
F1
sg4
I2
sg5
I193
sg6
F1
sS'v'
g7
(F1.0319306671617168
F-2.3847247505239606
F3.0182540898996768
tRp587
sg9
I1
sg10
I193
sg11
g7
(F0.60069497371229319
F4.0505414087126068
F3.0938088888107855
tRp588
sa(dp589
g3
F0
sg4
I1
sg5
I194
sg6
F0.20000000000000001
sS'v'
g7
(F0
F0
F0
tRp590
sg9
I4
sg10
I194
sg11
g7
(F0.3972870311555714
F4.4452030779893246
F2.863879822121608
tRp591
sa(dp592
g3
F1
sg4
I2
sg5
I195
sg6
F1
sS'v'
g7
(F-1.1756857752730041
F0.20788766065458247
F1.8173132295695951
tRp593
sg9
I1
sg10
I195
sg11
g7
(F1.6667809061999093
F3.1844889971006234
F4.8276399754556332
tRp594
sa(dp595
g3
F0
sg4
I1
sg5
I196
sg6
F0.20000000000000001
sS'v'
g7
(F0
F0
F0
tRp596
sg9
I4
sg10
I196
sg11
g7
(F1.8900581346288718
F3.3807463032867915
F4.4256072043614978
tRp597
sa(dp598
g3
F1
sg4
I2
sg5
I197
sg6
F1
sS'v'
g7
(F-1.8651123603584139
F0.46056551153053565
F1.0338111196597428
tRp599
sg9
I1
sg10
I197
sg11
g7
(F1.7871354034396409
F2.2325582620049236
F4.4057571385052494
tRp600
sa(dp601
g3
F0
sg4
I1
sg5
I198
sg6
F0.20000000000000001
sS'v'
g7
(F0
F0
F0
tRp602
sg9
I4
sg10
I198
sg11
g7
(F2.2134020727009163
F2.344147293362294
F4.1694424864888697
tRp603
sa(dp604
g3
F1
sg4
I2
sg5
I199
sg6
F1
sS'v'
g7
(F-1.6199038739007929
F-2.7574279035001656
F2.4628870761546269
tRp605
sg9
I1
sg10
I199
sg11
g7
(F0.93622898340279748
F0.93245578928635364
F0.49011645364882273
tRp606
sa(dp607
g3
F0
sg4
I1
sg5
I200
sg6
F0.20000000000000001
sS'v'
g7
(F0
F0
F0
tRp608
sg9
I4
sg10
I200
sg11
g7
(F0.92962602617156664
F0.57317225954607132
F0.14245031176387268
tRp609
sa.