(lp1
(lp2
(lp3
(I62
I630
tp4
a(I288
I383
tp5
a(I115
I293
tp6
a(I671
I759
tp7
a(I114
I708
tp8
a(I220
I605
tp9
a(I278
I288
tp10
a(I439
I813
tp11
a(I136
I655
tp12
a(I101
I287
tp13
a(I154
I895
tp14
a(I34
I693
tp15
a(I576
I670
tp16
a(I264
I470
tp17
a(I641
I673
tp18
a(I355
I448
tp19
a(I355
I934
tp20
a(I90
I304
tp21
a(I630
I791
tp22
a(I342
I632
tp23
a(I236
I742
tp24
a(I166
I314
tp25
a(I555
I875
tp26
a(I602
I653
tp27
a(I88
I453
tp28
a(I88
I596
tp29
a(I49
I619
tp30
a(I566
I848
tp31
a(I185
I884
tp32
a(I485
I959
tp33
a(I363
I409
tp34
a(I397
I540
tp35
a(I397
I638
tp36
a(I110
I575
tp37
a(I110
I115
tp38
a(I620
I657
tp39
a(I910
I951
tp40
a(I570
I881
tp41
a(I102
I396
tp42
a(I927
I978
tp43
a(I173
I939
tp44
a(I117
I457
tp45
a(I895
I990
tp46
a(I692
I864
tp47
a(I605
I922
tp48
a(I287
I781
tp49
a(I283
I353
tp50
a(I17
I150
tp51
a(I123
I739
tp52
a(I742
I763
tp53
a(I64
I205
tp54
a(I64
I789
tp55
a(I25
I750
tp56
a(I615
I994
tp57
a(I615
I627
tp58
a(I109
I762
tp59
a(I109
I721
tp60
a(I457
I755
tp61
a(I695
I725
tp62
a(I488
I514
tp63
a(I284
I945
tp64
a(I673
I860
tp65
a(I343
I696
tp66
a(I448
I876
tp67
a(I727
I785
tp68
a(I186
I580
tp69
a(I70
I775
tp70
a(I122
I618
tp71
a(I357
I949
tp72
a(I219
I834
tp73
a(I219
I255
tp74
a(I162
I526
tp75
a(I113
I859
tp76
a(I704
I802
tp77
a(I534
I975
tp78
a(I428
I723
tp79
a(I569
I823
tp80
a(I277
I578
tp81
a(I666
I988
tp82
a(I411
I513
tp83
a(I223
I368
tp84
a(I223
I736
tp85
a(I612
I644
tp86
a(I545
I609
tp87
a(I344
I835
tp88
a(I253
I558
tp89
a(I642
I824
tp90
a(I433
I633
tp91
a(I44
I570
tp92
a(I674
I708
tp93
a(I15
I398
tp94
a(I404
I723
tp95
a(I245
I867
tp96
a(I286
I827
tp97
a(I286
I390
tp98
a(I565
I933
tp99
a(I176
I215
tp100
a(I176
I405
tp101
a(I703
I968
tp102
a(I314
I863
tp103
a(I468
I901
tp104
a(I79
I167
tp105
a(I170
I263
tp106
a(I945
I979
tp107
a(I556
I861
tp108
a(I254
I948
tp109
a(I447
I922
tp110
a(I350
I459
tp111
a(I546
I845
tp112
a(I157
I880
tp113
a(I178
I735
tp114
a(I178
I709
tp115
a(I567
I697
tp116
a(I374
I458
tp117
a(I358
I506
tp118
a(I199
I400
tp119
a(I455
I490
tp120
a(I455
I612
tp121
a(I66
I162
tp122
a(I100
I524
tp123
a(I489
I994
tp124
a(I734
I835
tp125
a(I27
I614
tp126
a(I416
I541
tp127
a(I204
I340
tp128
a(I45
I262
tp129
a(I779
I888
tp130
a(I393
I659
tp131
a(I393
I483
tp132
a(I898
I986
tp133
a(I85
I695
tp134
a(I271
I392
tp135
a(I193
I323
tp136
a(I0
I545
tp137
a(I379
I588
tp138
a(I379
I394
tp139
a(I554
I800
tp140
a(I554
I990
tp141
a(I54
I935
tp142
a(I636
I678
tp143
a(I636
I987
tp144
a(I247
I694
tp145
a(I247
I732
tp146
a(I244
I812
tp147
a(I184
I550
tp148
a(I657
I690
tp149
a(I268
I343
tp150
a(I265
I787
tp151
a(I265
I989
tp152
a(I654
I932
tp153
a(I505
I778
tp154
a(I116
I289
tp155
a(I32
I496
tp156
a(I32
I759
tp157
a(I2
I137
tp158
a(I533
I635
tp159
a(I147
I404
tp160
a(I94
I668
tp161
a(I480
I871
tp162
a(I527
I901
tp163
a(I138
I674
tp164
a(I232
I960
tp165
a(I621
I957
tp166
a(I235
I588
tp167
a(I712
I936
tp168
a(I133
I918
tp169
a(I133
I194
tp170
a(I326
I914
tp171
a(I5
I799
tp172
a(I684
I962
tp173
a(I74
I360
tp174
a(I378
I462
tp175
a(I12
I980
tp176
a(I401
I454
tp177
a(I401
I968
tp178
a(I594
I859
tp179
a(I208
I470
tp180
a(I595
I602
tp181
a(I13
I705
tp182
a(I402
I992
tp183
a(I808
I827
tp184
a(I811
I877
tp185
a(I422
I717
tp186
a(I617
I621
tp187
a(I228
I480
tp188
a(I517
I705
tp189
a(I324
I463
tp190
a(I324
I982
tp191
a(I969
I998
tp192
a(I580
I658
tp193
a(I482
I699
tp194
a(I482
I941
tp195
a(I289
I649
tp196
a(I398
I907
tp197
a(I909
I916
tp198
a(I137
I569
tp199
a(I523
I925
tp200
a(I523
I763
tp201
a(I425
I933
tp202
a(I425
I951
tp203
a(I202
I331
tp204
a(I203
I791
tp205
a(I396
I938
tp206
a(I688
I870
tp207
a(I299
I807
tp208
a(I299
I556
tp209
a(I648
I909
tp210
a(I69
I328
tp211
a(I69
I620
tp212
a(I651
I691
tp213
a(I262
I667
tp214
a(I360
I575
tp215
a(I164
I928
tp216
a(I164
I762
tp217
a(I553
I787
tp218
a(I183
I481
tp219
a(I183
I870
tp220
a(I376
I717
tp221
a(I182
I694
tp222
a(I174
I331
tp223
a(I174
I507
tp224
a(I560
I935
tp225
a(I366
I860
tp226
a(I655
I997
tp227
a(I269
I476
tp228
a(I269
I278
tp229
a(I403
I552
tp230
a(I403
I516
tp231
a(I501
I805
tp232
a(I86
I766
tp233
a(I436
I785
tp234
a(I821
I884
tp235
a(I46
I144
tp236
a(I435
I631
tp237
a(I242
I648
tp238
a(I141
I412
tp239
a(I139
I532
tp240
a(I139
I453
tp241
a(I119
I345
tp242
a(I21
I268
tp243
a(I214
I623
tp244
a(I214
I804
tp245
a(I550
I720
tp246
a(I161
I543
tp247
a(I140
I788
tp248
a(I564
I769
tp249
a(I150
I629
tp250
a(I300
I414
tp251
a(I300
I885
tp252
a(I646
I684
tp253
a(I257
I781
tp254
a(I158
I896
tp255
a(I936
I950
tp256
a(I10
I370
tp257
a(I10
I89
tp258
a(I399
I680
tp259
a(I65
I921
tp260
a(I65
I731
tp261
a(I118
I700
tp262
a(I701
I811
tp263
a(I31
I608
tp264
a(I224
I519
tp265
a(I224
I974
tp266
a(I207
I243
tp267
a(I67
I906
tp268
a(I260
I747
tp269
a(I349
I444
tp270
a(I348
I878
tp271
a(I737
I912
tp272
a(I249
I363
tp273
a(I56
I979
tp274
a(I251
I706
tp275
a(I55
I439
tp276
a(I444
I710
tp277
a(I619
I904
tp278
a(I622
I823
tp279
a(I233
I774
tp280
a(I233
I498
tp281
a(I815
I971
tp282
a(I728
I980
tp283
a(I346
I426
tp284
a(I347
I483
tp285
a(I347
I757
tp286
a(I540
I604
tp287
a(I152
I378
tp288
a(I424
I658
tp289
a(I57
I256
tp290
a(I57
I760
tp291
a(I160
I232
tp292
a(I294
I800
tp293
a(I29
I494
tp294
a(I29
I177
tp295
a(I478
I729
tp296
a(I72
I751
tp297
a(I72
I755
tp298
a(I662
I898
tp299
a(I60
I257
tp300
a(I98
I502
tp301
a(I95
I959
tp302
a(I484
I972
tp303
aaa(lp304
(lp305
(I516
I403
I552
tp306
a(I95
I959
I485
tp307
a(I690
I657
I620
tp308
a(I671
I759
I32
tp309
a(I638
I397
I540
tp310
a(I627
I615
I994
tp311
a(I394
I379
I588
tp312
a(I288
I278
I269
tp313
a(I813
I439
I55
tp314
a(I507
I174
I331
tp315
a(I154
I895
I990
tp316
a(I115
I110
I575
tp317
a(I264
I470
I208
tp318
a(I355
I448
I876
tp319
a(I736
I223
I368
tp320
a(I630
I791
I203
tp321
a(I166
I314
I863
tp322
a(I653
I602
I595
tp323
a(I284
I945
I979
tp324
a(I88
I453
I139
tp325
a(I185
I884
I821
tp326
a(I117
I457
I755
tp327
a(I703
I968
I401
tp328
a(I757
I347
I483
tp329
a(I397
I540
I604
tp330
a(I110
I575
I360
tp331
a(I12
I980
I728
tp332
a(I265
I787
I553
tp333
a(I968
I401
I454
tp334
a(I62
I630
I791
tp335
a(I622
I823
I569
tp336
a(I910
I951
I425
tp337
a(I742
I763
I523
tp338
a(I881
I570
I44
tp339
a(I721
I109
I762
tp340
a(I781
I257
I60
tp341
a(I789
I64
I205
tp342
a(I804
I214
I623
tp343
a(I895
I990
I554
tp344
a(I696
I343
I268
tp345
a(I17
I150
I629
tp346
a(I605
I922
I447
tp347
a(I732
I247
I694
tp348
a(I688
I870
I183
tp349
a(I116
I289
I649
tp350
a(I941
I482
I699
tp351
a(I987
I636
I678
tp352
a(I760
I57
I256
tp353
a(I114
I708
I674
tp354
a(I468
I901
I527
tp355
a(I877
I811
I701
tp356
a(I160
I232
I960
tp357
a(I951
I425
I933
tp358
a(I986
I898
I662
tp359
a(I13
I705
I517
tp360
a(I870
I183
I481
tp361
a(I823
I569
I137
tp362
a(I109
I762
I164
tp363
a(I113
I859
I594
tp364
a(I428
I723
I404
tp365
a(I596
I88
I453
tp366
a(I673
I860
I366
tp367
a(I982
I324
I463
tp368
a(I457
I755
I72
tp369
a(I405
I176
I215
tp370
a(I974
I224
I519
tp371
a(I644
I612
I455
tp372
a(I425
I933
I565
tp373
a(I609
I545
I0
tp374
a(I344
I835
I734
tp375
a(I186
I580
I658
tp376
a(I347
I483
I393
tp377
a(I49
I619
I904
tp378
a(I498
I233
I774
tp379
a(I617
I621
I957
tp380
a(I390
I286
I827
tp381
a(I101
I287
I781
tp382
a(I641
I673
I860
tp383
a(I871
I480
I228
tp384
a(I383
I288
I278
tp385
a(I708
I674
I138
tp386
a(I409
I363
I249
tp387
a(I861
I556
I299
tp388
a(I755
I72
I751
tp389
a(I989
I265
I787
tp390
a(I759
I32
I496
tp391
a(I286
I827
I808
tp392
a(I194
I133
I918
tp393
a(I763
I523
I925
tp394
a(I569
I137
I2
tp395
a(I916
I909
I648
tp396
a(I422
I717
I376
tp397
a(I174
I331
I202
tp398
a(I885
I300
I414
tp399
a(I727
I785
I436
tp400
a(I945
I979
I56
tp401
a(I720
I550
I184
tp402
a(I762
I164
I928
tp403
a(I712
I936
I950
tp404
a(I990
I554
I800
tp405
a(I45
I262
I667
tp406
a(I612
I455
I490
tp407
a(I909
I648
I242
tp408
a(I620
I69
I328
tp409
a(I575
I360
I74
tp410
a(I287
I781
I257
tp411
a(I379
I588
I235
tp412
a(I177
I29
I494
tp413
a(I615
I994
I489
tp414
a(I554
I800
I294
tp415
a(I293
I115
I110
tp416
a(I247
I694
I182
tp417
a(I731
I65
I921
tp418
a(I934
I355
I448
tp419
a(I526
I162
I66
tp420
a(I657
I620
I69
tp421
a(I349
I444
I710
tp422
a(I236
I742
I763
tp423
a(I54
I935
I560
tp424
a(I89
I10
I370
tp425
a(I102
I396
I938
tp426
a(I556
I299
I807
tp427
a(I220
I605
I922
tp428
a(I255
I219
I834
tp429
a(I646
I684
I962
tp430
a(I483
I393
I659
tp431
a(I580
I658
I424
tp432
a(I343
I268
I21
tp433
a(I462
I378
I152
tp434
a(I725
I695
I85
tp435
a(I723
I404
I147
tp436
a(I453
I139
I532
tp437
a(I15
I398
I907
tp438
a(I709
I178
I735
tp439
a(I136
I655
I997
tp440
a(I278
I269
I476
tp441
aaa.