(lp1
(lp2
(lp3
(I259
I441
tp4
a(I378
I412
tp5
a(I464
I823
tp6
a(I11
I805
tp7
a(I385
I461
tp8
a(I490
I951
tp9
a(I272
I284
tp10
a(I86
I420
tp11
a(I333
I830
tp12
a(I44
I573
tp13
a(I433
I444
tp14
a(I260
I346
tp15
a(I498
I737
tp16
a(I761
I777
tp17
a(I336
I611
tp18
a(I46
I733
tp19
a(I82
I198
tp20
a(I809
I930
tp21
a(I37
I658
tp22
a(I37
I620
tp23
a(I142
I952
tp24
a(I182
I554
tp25
a(I429
I941
tp26
a(I467
I632
tp27
a(I245
I813
tp28
a(I14
I146
tp29
a(I211
I497
tp30
a(I181
I795
tp31
a(I461
I845
tp32
a(I369
I606
tp33
a(I502
I687
tp34
a(I243
I879
tp35
a(I170
I608
tp36
a(I362
I369
tp37
a(I821
I927
tp38
a(I611
I834
tp39
a(I198
I855
tp40
a(I509
I725
tp41
a(I411
I778
tp42
a(I551
I782
tp43
a(I551
I713
tp44
a(I313
I314
tp45
a(I313
I539
tp46
a(I517
I914
tp47
a(I718
I900
tp48
a(I124
I506
tp49
a(I230
I348
tp50
a(I295
I852
tp51
a(I295
I961
tp52
a(I123
I142
tp53
a(I784
I862
tp54
a(I784
I981
tp55
a(I255
I825
tp56
a(I255
I526
tp57
a(I115
I613
tp58
a(I628
I751
tp59
a(I466
I932
tp60
a(I77
I564
tp61
a(I77
I364
tp62
a(I9
I925
tp63
a(I342
I773
tp64
a(I212
I950
tp65
a(I358
I453
tp66
a(I747
I841
tp67
a(I373
I887
tp68
a(I161
I322
tp69
a(I119
I765
tp70
a(I678
I855
tp71
a(I862
I912
tp72
a(I594
I680
tp73
a(I2
I944
tp74
a(I391
I632
tp75
a(I108
I656
tp76
a(I108
I994
tp77
a(I48
I492
tp78
a(I48
I284
tp79
a(I966
I984
tp80
a(I918
I945
tp81
a(I529
I593
tp82
a(I297
I795
tp83
a(I344
I835
tp84
a(I344
I847
tp85
a(I18
I309
tp86
a(I240
I786
tp87
a(I496
I707
tp88
a(I107
I588
tp89
a(I744
I928
tp90
a(I744
I823
tp91
a(I185
I629
tp92
a(I830
I898
tp93
a(I208
I362
tp94
a(I347
I350
tp95
a(I246
I714
tp96
a(I234
I418
tp97
a(I623
I882
tp98
a(I96
I562
tp99
a(I213
I931
tp100
a(I602
I919
tp101
a(I79
I298
tp102
a(I79
I259
tp103
a(I468
I921
tp104
a(I390
I812
tp105
a(I393
I772
tp106
a(I4
I320
tp107
a(I4
I446
tp108
a(I254
I945
tp109
a(I66
I211
tp110
a(I410
I414
tp111
a(I217
I794
tp112
a(I593
I924
tp113
a(I207
I411
tp114
a(I735
I913
tp115
a(I304
I768
tp116
a(I304
I845
tp117
a(I368
I647
tp118
a(I167
I975
tp119
a(I265
I553
tp120
a(I265
I737
tp121
a(I785
I873
tp122
a(I13
I943
tp123
a(I13
I920
tp124
a(I94
I865
tp125
a(I483
I585
tp126
a(I327
I760
tp127
a(I134
I642
tp128
a(I612
I896
tp129
a(I226
I653
tp130
a(I226
I432
tp131
a(I150
I219
tp132
a(I492
I844
tp133
a(I424
I798
tp134
a(I353
I685
tp135
a(I501
I667
tp136
a(I277
I327
tp137
a(I666
I852
tp138
a(I476
I792
tp139
a(I865
I972
tp140
a(I283
I717
tp141
a(I672
I754
tp142
a(I100
I576
tp143
a(I489
I915
tp144
a(I51
I365
tp145
a(I727
I894
tp146
a(I534
I732
tp147
a(I827
I969
tp148
a(I49
I616
tp149
a(I49
I619
tp150
a(I405
I439
tp151
a(I598
I673
tp152
a(I19
I326
tp153
a(I19
I282
tp154
a(I199
I537
tp155
a(I588
I986
tp156
a(I202
I238
tp157
a(I575
I963
tp158
a(I575
I761
tp159
a(I186
I997
tp160
a(I186
I658
tp161
a(I379
I546
tp162
a(I379
I605
tp163
a(I765
I772
tp164
a(I60
I835
tp165
a(I449
I978
tp166
a(I449
I581
tp167
a(I256
I391
tp168
a(I294
I932
tp169
a(I98
I775
tp170
a(I487
I509
tp171
a(I85
I695
tp172
a(I703
I734
tp173
a(I314
I947
tp174
a(I656
I774
tp175
a(I74
I685
tp176
a(I463
I733
tp177
a(I659
I926
tp178
a(I270
I768
tp179
a(I291
I911
tp180
a(I415
I798
tp181
a(I26
I357
tp182
a(I26
I892
tp183
a(I219
I635
tp184
a(I370
I782
tp185
a(I8
I957
tp186
a(I8
I530
tp187
a(I201
I843
tp188
a(I201
I429
tp189
a(I298
I560
tp190
a(I215
I793
tp191
a(I233
I456
tp192
a(I233
I825
tp193
a(I116
I649
tp194
a(I505
I557
tp195
a(I117
I538
tp196
a(I117
I457
tp197
a(I90
I213
tp198
a(I41
I454
tp199
a(I41
I110
tp200
a(I486
I846
tp201
a(I698
I747
tp202
a(I309
I808
tp203
a(I695
I898
tp204
a(I888
I934
tp205
a(I5
I286
tp206
a(I585
I769
tp207
a(I392
I567
tp208
a(I193
I639
tp209
a(I0
I365
tp210
a(I76
I938
tp211
a(I462
I499
tp212
a(I519
I813
tp213
a(I130
I895
tp214
a(I516
I673
tp215
a(I131
I557
tp216
a(I321
I631
tp217
a(I710
I726
tp218
a(I247
I447
tp219
a(I247
I371
tp220
a(I633
I873
tp221
a(I248
I905
tp222
a(I55
I439
tp223
a(I771
I876
tp224
a(I192
I376
tp225
a(I192
I794
tp226
a(I136
I604
tp227
a(I525
I576
tp228
a(I525
I977
tp229
a(I528
I610
tp230
a(I139
I399
tp231
a(I139
I683
tp232
a(I125
I532
tp233
a(I514
I919
tp234
a(I707
I824
tp235
a(I417
I636
tp236
a(I28
I507
tp237
a(I335
I699
tp238
a(I335
I790
tp239
a(I45
I906
tp240
a(I45
I480
tp241
a(I146
I971
tp242
a(I263
I836
tp243
a(I70
I616
tp244
a(I351
I507
tp245
a(I351
I407
tp246
a(I448
I771
tp247
a(I448
I779
tp248
a(I133
I644
tp249
a(I322
I359
tp250
a(I711
I948
tp251
a(I714
I729
tp252
a(I325
I848
tp253
a(I416
I841
tp254
a(I413
I779
tp255
a(I802
I983
tp256
a(I328
I657
tp257
a(I135
I494
tp258
a(I135
I469
tp259
a(I164
I552
tp260
a(I68
I426
tp261
a(I68
I124
tp262
a(I262
I558
tp263
a(I262
I347
tp264
a(I315
I393
tp265
a(I152
I349
tp266
a(I224
I717
tp267
a(I708
I962
tp268
a(I708
I741
tp269
a(I320
I485
tp270
a(I114
I372
tp271
a(I114
I510
tp272
a(I118
I926
tp273
a(I118
I718
tp274
a(I697
I807
tp275
a(I144
I564
tp276
a(I533
I750
tp277
a(I436
I502
tp278
a(I190
I701
tp279
a(I190
I218
tp280
a(I383
I939
tp281
a(I692
I903
tp282
a(I595
I653
tp283
a(I10
I228
tp284
a(I337
I899
tp285
a(I337
I878
tp286
a(I176
I732
tp287
a(I565
I644
tp288
a(I229
I286
tp289
a(I229
I799
tp290
a(I618
I879
tp291
a(I184
I986
tp292
a(I34
I883
tp293
a(I423
I555
tp294
a(I423
I875
tp295
a(I138
I433
tp296
a(I235
I844
tp297
a(I657
I895
tp298
a(I271
I887
tp299
a(I163
I770
tp300
a(I288
I513
tp301
a(I92
I430
tp302
a(I481
I613
tp303
a(I225
I778
tp304
a(I225
I982
tp305
a(I614
I727
tp306
aaa(lp307
(lp308
(I282
I19
I326
tp309
a(I441
I259
I79
tp310
a(I464
I823
I744
tp311
a(I385
I461
I845
tp312
a(I272
I284
I48
tp313
a(I333
I830
I898
tp314
a(I878
I337
I899
tp315
a(I444
I433
I138
tp316
a(I777
I761
I575
tp317
a(I982
I225
I778
tp318
a(I336
I611
I834
tp319
a(I480
I45
I906
tp320
a(I920
I13
I943
tp321
a(I961
I295
I852
tp322
a(I994
I108
I656
tp323
a(I176
I732
I534
tp324
a(I466
I932
I294
tp325
a(I799
I229
I286
tp326
a(I284
I48
I492
tp327
a(I698
I747
I841
tp328
a(I539
I313
I314
tp329
a(I941
I429
I201
tp330
a(I981
I784
I862
tp331
a(I110
I41
I454
tp332
a(I245
I813
I519
tp333
a(I510
I114
I372
tp334
a(I14
I146
I971
tp335
a(I446
I4
I320
tp336
a(I658
I186
I997
tp337
a(I119
I765
I772
tp338
a(I605
I379
I546
tp339
a(I461
I845
I304
tp340
a(I606
I369
I362
tp341
a(I497
I211
I66
tp342
a(I898
I695
I85
tp343
a(I18
I309
I808
tp344
a(I687
I502
I436
tp345
a(I683
I139
I399
tp346
a(I900
I718
I118
tp347
a(I977
I525
I576
tp348
a(I130
I895
I657
tp349
a(I725
I509
I487
tp350
a(I778
I411
I207
tp351
a(I351
I507
I28
tp352
a(I313
I314
I947
tp353
a(I506
I124
I68
tp354
a(I295
I852
I666
tp355
a(I432
I226
I653
tp356
a(I619
I49
I616
tp357
a(I467
I632
I391
tp358
a(I405
I439
I55
tp359
a(I255
I825
I233
tp360
a(I115
I613
I481
tp361
a(I37
I658
I186
tp362
a(I259
I79
I298
tp363
a(I198
I855
I678
tp364
a(I77
I564
I144
tp365
a(I713
I551
I782
tp366
a(I823
I744
I928
tp367
a(I347
I262
I558
tp368
a(I747
I841
I416
tp369
a(I373
I887
I271
tp370
a(I845
I304
I768
tp371
a(I784
I862
I912
tp372
a(I457
I117
I538
tp373
a(I952
I142
I123
tp374
a(I790
I335
I699
tp375
a(I785
I873
I633
tp376
a(I529
I593
I924
tp377
a(I498
I737
I265
tp378
a(I407
I351
I507
tp379
a(I526
I255
I825
tp380
a(I779
I448
I771
tp381
a(I581
I449
I978
tp382
a(I344
I835
I60
tp383
a(I760
I327
I277
tp384
a(I243
I879
I618
tp385
a(I551
I782
I370
tp386
a(I48
I492
I844
tp387
a(I353
I685
I74
tp388
a(I107
I588
I986
tp389
a(I254
I945
I918
tp390
a(I131
I557
I505
tp391
a(I181
I795
I297
tp392
a(I931
I213
I90
tp393
a(I217
I794
I192
tp394
a(I469
I135
I494
tp395
a(I246
I714
I729
tp396
a(I620
I37
I658
tp397
a(I49
I616
I70
tp398
a(I875
I423
I555
tp399
a(I588
I986
I184
tp400
a(I516
I673
I598
tp401
a(I218
I190
I701
tp402
a(I525
I576
I100
tp403
a(I718
I118
I926
tp404
a(I892
I26
I357
tp405
a(I415
I798
I424
tp406
a(I150
I219
I635
tp407
a(I830
I898
I695
tp408
a(I124
I68
I426
tp409
a(I737
I265
I553
tp410
a(I492
I844
I235
tp411
a(I229
I286
I5
tp412
a(I972
I865
I94
tp413
a(I761
I575
I963
tp414
a(I304
I768
I270
tp415
a(I794
I192
I376
tp416
a(I448
I771
I876
tp417
a(I825
I233
I456
tp418
a(I895
I657
I328
tp419
a(I359
I322
I161
tp420
a(I741
I708
I962
tp421
a(I4
I320
I485
tp422
a(I772
I393
I315
tp423
a(I413
I779
I448
tp424
a(I82
I198
I855
tp425
a(I632
I391
I256
tp426
a(I225
I778
I411
tp427
a(I483
I585
I769
tp428
a(I369
I362
I208
tp429
a(I226
I653
I595
tp430
a(I224
I717
I283
tp431
a(I133
I644
I565
tp432
a(I79
I298
I560
tp433
a(I530
I8
I957
tp434
a(I429
I201
I843
tp435
a(I847
I344
I835
tp436
a(I371
I247
I447
tp437
a(I46
I733
I463
tp438
a(I350
I347
I262
tp439
a(I118
I926
I659
tp440
a(I364
I77
I564
tp441
a(I108
I656
I774
tp442
a(I51
I365
I0
tp443
a(I894
I727
I614
tp444
a(I765
I772
I393
tp445
a(I602
I919
I514
tp446
a(I824
I707
I496
tp447
aaa.