(lp1
(lp2
(lp3
(I343
I794
tp4
a(I491
I526
tp5
a(I238
I381
tp6
a(I188
I972
tp7
a(I250
I492
tp8
a(I432
I486
tp9
a(I599
I672
tp10
a(I53
I816
tp11
a(I708
I712
tp12
a(I236
I732
tp13
a(I111
I219
tp14
a(I279
I329
tp15
a(I504
I622
tp16
a(I209
I442
tp17
a(I209
I428
tp18
a(I118
I932
tp19
a(I709
I736
tp20
a(I401
I991
tp21
a(I562
I568
tp22
a(I561
I849
tp23
a(I406
I714
tp24
a(I404
I498
tp25
a(I470
I479
tp26
a(I470
I851
tp27
a(I556
I697
tp28
a(I137
I858
tp29
a(I733
I927
tp30
a(I582
I895
tp31
a(I331
I892
tp32
a(I359
I504
tp33
a(I572
I744
tp34
a(I64
I845
tp35
a(I549
I586
tp36
a(I727
I887
tp37
a(I300
I549
tp38
a(I381
I791
tp39
a(I373
I567
tp40
a(I690
I842
tp41
a(I97
I409
tp42
a(I522
I837
tp43
a(I455
I480
tp44
a(I641
I715
tp45
a(I162
I811
tp46
a(I415
I798
tp47
a(I515
I803
tp48
a(I515
I714
tp49
a(I258
I547
tp50
a(I102
I128
tp51
a(I539
I740
tp52
a(I736
I930
tp53
a(I109
I868
tp54
a(I109
I816
tp55
a(I699
I862
tp56
a(I43
I819
tp57
a(I43
I331
tp58
a(I281
I359
tp59
a(I176
I732
tp60
a(I805
I845
tp61
a(I695
I725
tp62
a(I693
I894
tp63
a(I642
I759
tp64
a(I554
I800
tp65
a(I196
I200
tp66
a(I448
I785
tp67
a(I105
I268
tp68
a(I462
I755
tp69
a(I347
I594
tp70
a(I332
I581
tp71
a(I332
I687
tp72
a(I290
I935
tp73
a(I679
I893
tp74
a(I93
I911
tp75
a(I624
I922
tp76
a(I624
I757
tp77
a(I170
I637
tp78
a(I177
I292
tp79
a(I233
I790
tp80
a(I468
I763
tp81
a(I161
I458
tp82
a(I675
I932
tp83
a(I368
I647
tp84
a(I387
I453
tp85
a(I119
I695
tp86
a(I185
I443
tp87
a(I185
I279
tp88
a(I840
I849
tp89
a(I71
I530
tp90
a(I71
I583
tp91
a(I477
I600
tp92
a(I525
I612
tp93
a(I525
I827
tp94
a(I255
I920
tp95
a(I29
I585
tp96
a(I27
I233
tp97
a(I796
I931
tp98
a(I226
I335
tp99
a(I226
I853
tp100
a(I363
I897
tp101
a(I456
I790
tp102
a(I911
I960
tp103
a(I142
I858
tp104
a(I602
I919
tp105
a(I409
I891
tp106
a(I337
I878
tp107
a(I337
I452
tp108
a(I600
I822
tp109
a(I701
I920
tp110
a(I262
I558
tp111
a(I224
I282
tp112
a(I224
I949
tp113
a(I62
I232
tp114
a(I62
I495
tp115
a(I311
I554
tp116
a(I597
I693
tp117
a(I469
I509
tp118
a(I38
I977
tp119
a(I293
I372
tp120
a(I293
I613
tp121
a(I299
I846
tp122
a(I313
I314
tp123
a(I313
I445
tp124
a(I76
I606
tp125
a(I76
I601
tp126
a(I386
I786
tp127
a(I386
I478
tp128
a(I352
I799
tp129
a(I384
I856
tp130
a(I384
I923
tp131
a(I802
I975
tp132
a(I33
I577
tp133
a(I33
I981
tp134
a(I323
I596
tp135
a(I308
I606
tp136
a(I96
I247
tp137
a(I865
I902
tp138
a(I103
I361
tp139
a(I492
I700
tp140
a(I52
I80
tp141
a(I52
I269
tp142
a(I154
I791
tp143
a(I35
I673
tp144
a(I35
I460
tp145
a(I160
I788
tp146
a(I160
I232
tp147
a(I929
I956
tp148
a(I540
I878
tp149
a(I151
I815
tp150
a(I40
I64
tp151
a(I809
I881
tp152
a(I174
I500
tp153
a(I247
I797
tp154
a(I56
I830
tp155
a(I84
I450
tp156
a(I473
I841
tp157
a(I748
I881
tp158
a(I130
I657
tp159
a(I90
I312
tp160
a(I30
I723
tp161
a(I30
I568
tp162
a(I672
I889
tp163
a(I283
I286
tp164
a(I214
I521
tp165
a(I486
I784
tp166
a(I220
I534
tp167
a(I220
I643
tp168
a(I756
I852
tp169
a(I716
I999
tp170
a(I327
I760
tp171
a(I327
I956
tp172
a(I344
I436
tp173
a(I344
I820
tp174
a(I108
I913
tp175
a(I108
I664
tp176
a(I330
I496
tp177
a(I728
I874
tp178
a(I83
I190
tp179
a(I83
I840
tp180
a(I797
I990
tp181
a(I28
I174
tp182
a(I417
I748
tp183
a(I263
I895
tp184
a(I306
I557
tp185
a(I253
I718
tp186
a(I570
I860
tp187
a(I570
I641
tp188
a(I41
I454
tp189
a(I128
I575
tp190
a(I216
I987
tp191
a(I783
I921
tp192
a(I14
I912
tp193
a(I14
I498
tp194
a(I81
I382
tp195
a(I81
I281
tp196
a(I168
I808
tp197
a(I557
I607
tp198
a(I234
I708
tp199
a(I814
I896
tp200
a(I814
I951
tp201
a(I45
I906
tp202
a(I45
I222
tp203
a(I204
I214
tp204
a(I150
I157
tp205
a(I150
I219
tp206
a(I243
I607
tp207
a(I72
I863
tp208
a(I72
I462
tp209
a(I841
I973
tp210
a(I292
I677
tp211
a(I585
I769
tp212
a(I333
I888
tp213
a(I333
I942
tp214
a(I307
I880
tp215
a(I307
I665
tp216
a(I74
I685
tp217
a(I843
I856
tp218
a(I276
I952
tp219
a(I276
I531
tp220
a(I546
I676
tp221
a(I157
I633
tp222
a(I704
I969
tp223
a(I704
I983
tp224
a(I684
I751
tp225
a(I614
I673
tp226
a(I380
I651
tp227
a(I380
I382
tp228
a(I374
I993
tp229
a(I429
I678
tp230
a(I7
I783
tp231
a(I7
I38
tp232
a(I901
I983
tp233
a(I123
I828
tp234
a(I277
I760
tp235
a(I666
I852
tp236
a(I411
I427
tp237
a(I411
I690
tp238
a(I22
I877
tp239
a(I22
I933
tp240
a(I100
I611
tp241
a(I890
I916
tp242
a(I501
I806
tp243
a(I501
I866
tp244
a(I112
I489
tp245
a(I691
I796
tp246
a(I303
I691
tp247
a(I692
I864
tp248
a(I113
I527
tp249
a(I113
I361
tp250
a(I499
I831
tp251
a(I49
I70
tp252
a(I49
I976
tp253
a(I345
I581
tp254
a(I734
I775
tp255
a(I737
I807
tp256
a(I348
I479
tp257
a(I544
I739
tp258
a(I155
I987
tp259
a(I2
I761
tp260
a(I771
I966
tp261
a(I961
I995
tp262
a(I192
I326
tp263
a(I192
I794
tp264
a(I10
I627
tp265
a(I10
I298
tp266
a(I560
I806
tp267
a(I320
I772
tp268
a(I354
I710
tp269
a(I354
I540
tp270
a(I260
I815
tp271
a(I60
I86
tp272
a(I433
I573
tp273
a(I813
I949
tp274
a(I44
I448
tp275
a(I91
I215
tp276
a(I91
I176
tp277
a(I246
I473
tp278
a(I246
I300
tp279
a(I635
I897
tp280
a(I442
I904
tp281
a(I638
I726
tp282
a(I249
I656
tp283
a(I575
I761
tp284
a(I619
I825
tp285
a(I619
I811
tp286
a(I252
I676
tp287
a(I252
I574
tp288
a(I59
I400
tp289
a(I59
I733
tp290
a(I608
I877
tp291
a(I484
I763
tp292
a(I864
I903
tp293
a(I95
I962
tp294
a(I95
I119
tp295
a(I391
I876
tp296
a(I391
I891
tp297
a(I124
I938
tp298
a(I240
I399
tp299
a(I240
I259
tp300
a(I275
I370
tp301
a(I275
I627
tp302
a(I66
I679
tp303
a(I5
I243
tp304
a(I8
I205
tp305
a(I8
I530
tp306
a(I397
I548
tp307
a(I400
I662
tp308
a(I11
I242
tp309
a(I11
I964
tp310
a(I169
I488
tp311
a(I169
I308
tp312
a(I663
I837
tp313
a(I274
I742
tp314
a(I898
I959
tp315
a(I129
I175
tp316
a(I129
I141
tp317
a(I552
I612
tp318
a(I166
I905
tp319
a(I166
I196
tp320
a(I925
I972
tp321
a(I147
I323
tp322
a(I533
I750
tp323
a(I376
I793
tp324
a(I765
I772
tp325
a(I175
I221
tp326
a(I528
I579
tp327
a(I139
I532
tp328
a(I139
I321
tp329
a(I133
I476
tp330
a(I133
I142
tp331
a(I718
I926
tp332
a(I355
I375
tp333
a(I934
I978
tp334
a(I159
I959
tp335
a(I548
I899
tp336
a(I459
I900
tp337
a(I266
I270
tp338
a(I266
I740
tp339
a(I202
I916
tp340
a(I6
I645
tp341
a(I6
I73
tp342
a(I15
I167
tp343
a(I15
I602
tp344
a(I784
I971
tp345
a(I395
I593
tp346
a(I244
I620
tp347
a(I51
I365
tp348
a(I51
I677
tp349
a(I416
I577
tp350
a(I793
I954
tp351
a(I21
I686
tp352
a(I46
I144
tp353
a(I143
I766
tp354
a(I143
I569
tp355
a(I383
I939
tp356
a(I579
I889
tp357
a(I190
I517
tp358
a(I231
I505
tp359
a(I120
I312
tp360
a(I203
I798
tp361
a(I592
I924
tp362
a(I402
I727
tp363
a(I13
I943
tp364
a(I13
I218
tp365
a(I207
I663
tp366
a(I378
I412
tp367
a(I378
I747
tp368
a(I184
I239
tp369
a(I538
I697
tp370
a(I152
I349
tp371
a(I444
I573
tp372
a(I55
I439
tp373
a(I735
I913
tp374
a(I346
I426
tp375
a(I787
I820
tp376
a(I398
I975
tp377
a(I398
I422
tp378
a(I590
I874
tp379
a(I201
I993
tp380
a(I201
I999
tp381
a(I610
I829
tp382
a(I221
I950
tp383
a(I414
I973
tp384
a(I668
I865
tp385
a(I282
I519
tp386
a(I89
I228
tp387
a(I89
I860
tp388
a(I547
I706
tp389
a(I158
I565
tp390
a(I158
I616
tp391
a(I335
I774
tp392
a(I353
I685
tp393
a(I353
I819
tp394
a(I1
I487
tp395
a(I1
I469
tp396
a(I194
I918
tp397
a(I194
I518
tp398
a(I98
I375
tp399
a(I291
I427
tp400
a(I193
I723
tp401
a(I0
I365
tp402
a(I537
I654
tp403
a(I325
I848
tp404
a(I325
I869
tp405
a(I717
I867
tp406
a(I717
I739
tp407
a(I328
I620
tp408
a(I524
I611
tp409
a(I524
I868
tp410
a(I135
I494
tp411
a(I138
I433
tp412
a(I134
I521
tp413
a(I523
I770
tp414
a(I523
I742
tp415
a(I82
I610
tp416
a(I471
I767
tp417
a(I471
I803
tp418
a(I85
I413
tp419
a(I182
I922
tp420
a(I659
I926
tp421
a(I447
I589
tp422
a(I393
I831
tp423
a(I4
I320
tp424
a(I4
I82
tp425
a(I197
I948
tp426
a(I99
I821
tp427
a(I99
I799
tp428
a(I488
I667
tp429
a(I294
I311
tp430
a(I553
I637
tp431
a(I164
I928
tp432
a(I164
I744
tp433
a(I357
I826
tp434
a(I92
I675
tp435
a(I75
I514
tp436
a(I75
I480
tp437
a(I268
I997
tp438
a(I657
I957
tp439
a(I267
I287
tp440
a(I656
I822
tp441
a(I463
I743
tp442
a(I516
I623
tp443
a(I516
I935
tp444
a(I349
I645
tp445
a(I729
I767
tp446
a(I358
I453
tp447
a(I503
I593
tp448
a(I117
I256
tp449
a(I117
I597
tp450
a(I199
I854
tp451
a(I392
I598
tp452
a(I604
I765
tp453
a(I490
I825
tp454
a(I686
I952
tp455
a(I297
I726
tp456
a(I191
I595
tp457
a(I94
I974
tp458
a(I17
I834
tp459
a(I17
I491
tp460
a(I618
I738
tp461
a(I229
I513
tp462
a(I229
I668
tp463
a(I703
I934
tp464
a(I314
I947
tp465
a(I23
I342
tp466
a(I23
I915
tp467
a(I217
I754
tp468
a(I217
I995
tp469
a(I443
I963
tp470
a(I54
I670
tp471
a(I54
I451
tp472
a(I116
I649
tp473
a(I116
I792
tp474
a(I19
I629
tp475
a(I19
I401
tp476
a(I107
I208
tp477
a(I107
I287
tp478
aaa(lp479
(lp480
(I343
I794
I192
tp481
a(I526
I491
I17
tp482
a(I238
I381
I791
tp483
a(I813
I949
I224
tp484
a(I757
I624
I922
tp485
a(I531
I276
I952
tp486
a(I432
I486
I784
tp487
a(I599
I672
I889
tp488
a(I712
I708
I234
tp489
a(I236
I732
I176
tp490
a(I111
I219
I150
tp491
a(I622
I504
I359
tp492
a(I709
I736
I930
tp493
a(I951
I814
I896
tp494
a(I562
I568
I30
tp495
a(I498
I14
I912
tp496
a(I866
I501
I806
tp497
a(I923
I384
I856
tp498
a(I27
I233
I790
tp499
a(I714
I515
I803
tp500
a(I892
I331
I43
tp501
a(I572
I744
I164
tp502
a(I64
I845
I805
tp503
a(I887
I727
I402
tp504
a(I404
I498
I14
tp505
a(I816
I109
I868
tp506
a(I549
I300
I246
tp507
a(I687
I332
I581
tp508
a(I664
I108
I913
tp509
a(I842
I690
I411
tp510
a(I188
I972
I925
tp511
a(I518
I194
I918
tp512
a(I574
I252
I676
tp513
a(I715
I641
I570
tp514
a(I97
I409
I891
tp515
a(I415
I798
I203
tp516
a(I949
I224
I282
tp517
a(I515
I803
I471
tp518
a(I102
I128
I575
tp519
a(I331
I43
I819
tp520
a(I539
I740
I266
tp521
a(I470
I479
I348
tp522
a(I109
I868
I524
tp523
a(I43
I819
I353
tp524
a(I359
I281
I81
tp525
a(I732
I176
I91
tp526
a(I725
I695
I119
tp527
a(I894
I693
I597
tp528
a(I903
I864
I692
tp529
a(I561
I849
I840
tp530
a(I583
I71
I530
tp531
a(I800
I554
I311
tp532
a(I942
I333
I888
tp533
a(I755
I462
I72
tp534
a(I672
I889
I579
tp535
a(I460
I35
I673
tp536
a(I422
I398
I975
tp537
a(I568
I30
I723
tp538
a(I893
I679
I66
tp539
a(I976
I49
I70
tp540
a(I134
I521
I214
tp541
a(I624
I922
I182
tp542
a(I853
I226
I335
tp543
a(I170
I637
I553
tp544
a(I175
I221
I950
tp545
a(I716
I999
I201
tp546
a(I829
I610
I82
tp547
a(I665
I307
I880
tp548
a(I932
I675
I92
tp549
a(I445
I313
I314
tp550
a(I40
I64
I845
tp551
a(I387
I453
I358
tp552
a(I279
I185
I443
tp553
a(I471
I767
I729
tp554
a(I747
I378
I412
tp555
a(I451
I54
I670
tp556
a(I185
I443
I963
tp557
a(I406
I714
I515
tp558
a(I869
I325
I848
tp559
a(I162
I811
I619
tp560
a(I981
I33
I577
tp561
a(I525
I612
I552
tp562
a(I858
I142
I133
tp563
a(I255
I920
I701
tp564
a(I222
I45
I906
tp565
a(I486
I784
I971
tp566
a(I73
I6
I645
tp567
a(I200
I196
I166
tp568
a(I29
I585
I769
tp569
a(I931
I796
I691
tp570
a(I849
I840
I83
tp571
a(I495
I62
I232
tp572
a(I524
I611
I100
tp573
a(I226
I335
I774
tp574
a(I744
I164
I928
tp575
a(I740
I266
I270
tp576
a(I601
I76
I606
tp577
a(I62
I232
I160
tp578
a(I258
I547
I706
tp579
a(I616
I158
I565
tp580
a(I246
I473
I841
tp581
a(I613
I293
I372
tp582
a(I554
I311
I294
tp583
a(I991
I401
I19
tp584
a(I233
I790
I456
tp585
a(I901
I983
I704
tp586
a(I693
I597
I117
tp587
a(I933
I22
I877
tp588
a(I690
I411
I427
tp589
a(I954
I793
I376
tp590
a(I602
I15
I167
tp591
a(I811
I619
I825
tp592
a(I141
I129
I175
tp593
a(I53
I816
I109
tp594
a(I411
I427
I291
tp595
a(I977
I38
I7
tp596
a(I468
I763
I484
tp597
a(I898
I959
I159
tp598
a(I641
I570
I860
tp599
a(I929
I956
I327
tp600
a(I313
I314
I947
tp601
a(I956
I327
I760
tp602
a(I103
I361
I113
tp603
a(I961
I995
I217
tp604
a(I995
I217
I754
tp605
a(I76
I606
I308
tp606
a(I352
I799
I99
tp607
a(I643
I220
I534
tp608
a(I33
I577
I416
tp609
a(I269
I52
I80
tp610
a(I137
I858
I142
tp611
a(I509
I469
I1
tp612
a(I840
I83
I190
tp613
a(I274
I742
I523
tp614
a(I819
I353
I685
tp615
a(I544
I739
I717
tp616
a(I586
I549
I300
tp617
a(I232
I160
I788
tp618
a(I363
I897
I635
tp619
a(I695
I119
I95
tp620
a(I361
I113
I527
tp621
a(I409
I891
I391
tp622
a(I120
I312
I90
tp623
a(I927
I733
I59
tp624
a(I820
I344
I436
tp625
a(I556
I697
I538
tp626
a(I606
I308
I169
tp627
a(I902
I865
I668
tp628
a(I177
I292
I677
tp629
a(I169
I488
I667
tp630
a(I22
I877
I608
tp631
a(I799
I99
I821
tp632
a(I252
I676
I546
tp633
a(I267
I287
I107
tp634
a(I35
I673
I614
tp635
a(I151
I815
I260
tp636
a(I250
I492
I700
tp637
a(I809
I881
I748
tp638
a(I276
I952
I686
tp639
a(I500
I174
I28
tp640
a(I797
I247
I96
tp641
a(I522
I837
I663
tp642
a(I785
I448
I44
tp643
a(I733
I59
I400
tp644
a(I209
I442
I904
tp645
a(I393
I831
I499
tp646
a(I473
I841
I973
tp647
a(I196
I166
I905
tp648
a(I308
I169
I488
tp649
a(I504
I359
I281
tp650
a(I881
I748
I417
tp651
a(I638
I726
I297
tp652
a(I452
I337
I878
tp653
a(I71
I530
I8
tp654
a(I890
I916
I202
tp655
a(I30
I723
I193
tp656
a(I756
I852
I666
tp657
a(I596
I323
I147
tp658
a(I935
I516
I623
tp659
a(I868
I524
I611
tp660
a(I108
I913
I735
tp661
a(I501
I806
I560
tp662
a(I610
I82
I4
tp663
a(I570
I860
I89
tp664
a(I803
I471
I767
tp665
a(I81
I382
I380
tp666
a(I128
I575
I761
tp667
a(I398
I975
I802
tp668
a(I298
I10
I627
tp669
a(I952
I686
I21
tp670
a(I287
I107
I208
tp671
a(I455
I480
I75
tp672
a(I176
I91
I215
tp673
a(I983
I704
I969
tp674
a(I201
I993
I374
tp675
a(I557
I607
I243
tp676
a(I290
I935
I516
tp677
a(I150
I157
I633
tp678
a(I51
I365
I0
tp679
a(I822
I656
I249
tp680
a(I444
I573
I433
tp681
a(I382
I380
I651
tp682
a(I772
I765
I604
tp683
a(I224
I282
I519
tp684
a(I860
I89
I228
tp685
a(I329
I279
I185
tp686
a(I865
I668
I229
tp687
a(I59
I400
I662
tp688
a(I964
I11
I242
tp689
a(I7
I783
I921
tp690
a(I38
I7
I783
tp691
a(I919
I602
I15
tp692
a(I915
I23
I342
tp693
a(I827
I525
I612
tp694
a(I321
I139
I532
tp695
a(I253
I718
I926
tp696
a(I244
I620
I328
tp697
a(I575
I761
I2
tp698
a(I355
I375
I98
tp699
a(I503
I593
I395
tp700
a(I796
I691
I303
tp701
a(I4
I320
I772
tp702
a(I259
I240
I399
tp703
a(I600
I822
I656
tp704
a(I573
I433
I138
tp705
a(I787
I820
I344
tp706
a(I10
I627
I275
tp707
a(I332
I581
I345
tp708
a(I794
I192
I326
tp709
a(I292
I677
I51
tp710
a(I119
I95
I962
tp711
a(I990
I797
I247
tp712
a(I401
I19
I629
tp713
a(I792
I116
I649
tp714
a(I462
I72
I863
tp715
a(I306
I557
I607
tp716
a(I851
I470
I479
tp717
a(I281
I81
I382
tp718
a(I327
I760
I277
tp719
a(I384
I856
I843
tp720
a(I837
I663
I207
tp721
a(I627
I275
I370
tp722
a(I668
I229
I513
tp723
a(I540
I354
I710
tp724
a(I6
I645
I349
tp725
a(I703
I934
I978
tp726
a(I397
I548
I899
tp727
a(I381
I791
I154
tp728
a(I218
I13
I943
tp729
a(I889
I579
I528
tp730
a(I83
I190
I517
tp731
a(I478
I386
I786
tp732
a(I320
I772
I765
tp733
a(I607
I243
I5
tp734
a(I300
I246
I473
tp735
a(I619
I825
I490
tp736
a(I82
I4
I320
tp737
a(I645
I349
I152
tp738
a(I739
I717
I867
tp739
a(I742
I523
I770
tp740
a(I129
I175
I221
tp741
a(I590
I874
I728
tp742
a(I469
I1
I487
tp743
a(I477
I600
I822
tp744
a(I521
I214
I204
tp745
a(I582
I895
I263
tp746
a(I597
I117
I256
tp747
a(I891
I391
I876
tp748
a(I999
I201
I993
tp749
a(I530
I8
I205
tp750
a(I841
I973
I414
tp751
a(I569
I143
I766
tp752
a(I337
I878
I540
tp753
a(I353
I685
I74
tp754
a(I219
I150
I157
tp755
a(I118
I932
I675
tp756
a(I878
I540
I354
tp757
a(I718
I926
I659
tp758
a(I93
I911
I960
tp759
a(I142
I133
I476
tp760
a(I105
I268
I997
tp761
a(I130
I657
I957
tp762
a(I480
I75
I514
tp763
a(I677
I51
I365
tp764
a(I491
I17
I834
tp765
a(I428
I209
I442
tp766
a(I216
I987
I155
tp767
aaa(lp768
(lp769
(I526
I834
tp770
a(I154
I238
tp771
a(I182
I757
tp772
a(I531
I686
tp773
a(I432
I971
tp774
a(I608
I933
tp775
a(I111
I157
tp776
a(I428
I904
tp777
a(I92
I118
tp778
a(I348
I851
tp779
a(I406
I803
tp780
a(I404
I912
tp781
a(I560
I866
tp782
a(I40
I805
tp783
a(I27
I456
tp784
a(I819
I892
tp785
a(I572
I928
tp786
a(I473
I549
tp787
a(I754
I961
tp788
a(I345
I687
tp789
a(I471
I714
tp790
a(I664
I735
tp791
a(I427
I842
tp792
a(I400
I927
tp793
a(I207
I522
tp794
a(I455
I514
tp795
a(I329
I443
tp796
a(I715
I860
tp797
a(I162
I825
tp798
a(I326
I343
tp799
a(I133
I137
tp800
a(I519
I949
tp801
a(I524
I816
tp802
a(I138
I444
tp803
a(I331
I353
tp804
a(I552
I827
tp805
a(I359
I382
tp806
a(I117
I894
tp807
a(I8
I583
tp808
a(I43
I685
tp809
a(I528
I672
tp810
a(I74
I819
tp811
a(I460
I614
tp812
a(I96
I990
tp813
a(I97
I391
tp814
a(I290
I623
tp815
a(I579
I599
tp816
a(I0
I677
tp817
a(I193
I568
tp818
a(I95
I725
tp819
a(I2
I128
tp820
a(I774
I853
tp821
a(I51
I177
tp822
a(I279
I963
tp823
a(I445
I947
tp824
a(I134
I204
tp825
a(I716
I993
tp826
a(I695
I962
tp827
a(I452
I540
tp828
a(I843
I923
tp829
a(I71
I205
tp830
a(I73
I349
tp831
a(I109
I611
tp832
a(I303
I931
tp833
a(I546
I574
tp834
a(I160
I495
tp835
a(I476
I858
tp836
a(I167
I919
tp837
a(I337
I354
tp838
a(I249
I600
tp839
a(I62
I788
tp840
a(I256
I693
tp841
a(I291
I690
tp842
a(I488
I606
tp843
a(I102
I761
tp844
a(I5
I557
tp845
a(I6
I152
tp846
a(I490
I811
tp847
a(I300
I841
tp848
a(I141
I221
tp849
a(I208
I267
tp850
a(I274
I770
tp851
a(I81
I651
tp852
a(I81
I504
tp853
a(I82
I772
tp854
a(I275
I298
tp855
a(I374
I999
tp856
a(I760
I929
tp857
a(I629
I991
tp858
a(I243
I306
tp859
a(I436
I787
tp860
a(I277
I956
tp861
a(I53
I868
tp862
a(I246
I973
tp863
a(I246
I586
tp864
a(I352
I821
tp865
a(I200
I905
tp866
a(I103
I527
tp867
a(I422
I802
tp868
a(I229
I902
tp869
a(I308
I667
tp870
a(I308
I601
tp871
a(I414
I473
tp872
a(I215
I732
tp873
a(I409
I876
tp874
a(I21
I276
tp875
a(I517
I840
tp876
a(I710
I878
tp877
a(I294
I800
tp878
a(I487
I509
tp879
a(I10
I370
tp880
a(I729
I803
tp881
a(I515
I767
tp882
a(I901
I969
tp883
a(I129
I950
tp884
a(I100
I868
tp885
a(I513
I865
tp886
a(I320
I604
tp887
a(I320
I610
tp888
a(I417
I809
tp889
a(I190
I849
tp890
a(I281
I380
tp891
a(I281
I622
tp892
a(I228
I570
tp893
a(I219
I633
tp894
a(I292
I365
tp895
a(I91
I236
tp896
a(I477
I656
tp897
a(I282
I813
tp898
a(I89
I641
tp899
a(I416
I981
tp900
a(I783
I977
tp901
a(I544
I867
tp902
a(I253
I659
tp903
a(I38
I921
tp904
a(I4
I765
tp905
a(I4
I829
tp906
a(I270
I539
tp907
a(I562
I723
tp908
a(I755
I863
tp909
a(I76
I169
tp910
a(I83
I561
tp911
a(I662
I733
tp912
aaa.